 modello_2017b_levaRetro_acc_sfun

 Timestamp is 5b59b476 (Thu Jul 26 13:45:58 2018)

 Preferred load address is 0000000180000000

 Start         Length     Name                   Class
 0001:00000000 000692b0H .text$mn                CODE
 0001:000692b0 00000012H .text$mn$00             CODE
 0001:000692c2 00000081H .text$x                 CODE
 0002:00000000 00000558H .idata$5                DATA
 0002:00000558 00000010H .00cfg                  DATA
 0002:00000568 00000008H .CRT$XCA                DATA
 0002:00000570 00000008H .CRT$XCZ                DATA
 0002:00000578 00000008H .CRT$XIA                DATA
 0002:00000580 00000008H .CRT$XIZ                DATA
 0002:00000588 00000008H .CRT$XPA                DATA
 0002:00000590 00000008H .CRT$XPZ                DATA
 0002:00000598 00000008H .CRT$XTA                DATA
 0002:000005a0 00000010H .CRT$XTZ                DATA
 0002:000005b0 00003d74H .rdata                  DATA
 0002:00004324 0000022cH .rdata$zzzdbg           DATA
 0002:00004550 00000008H .rtc$IAA                DATA
 0002:00004558 00000008H .rtc$IZZ                DATA
 0002:00004560 00000008H .rtc$TAA                DATA
 0002:00004568 00000008H .rtc$TZZ                DATA
 0002:00004570 00002be0H .xdata                  DATA
 0002:00007150 0000008cH .edata                  DATA
 0002:000071dc 000000dcH .idata$2                DATA
 0002:000072b8 00000018H .idata$3                DATA
 0002:000072d0 00000558H .idata$4                DATA
 0002:00007828 0000107eH .idata$6                DATA
 0003:00000000 00002080H .data                   DATA
 0003:00002080 00001780H .bss                    DATA
 0004:00000000 00002370H .pdata                  DATA
 0005:00000000 00000018H .gfids$y                DATA

  Address         Publics by Value              Rva+Base               Lib:Object

 0000:00000000       __guard_iat_count          0000000000000000     <absolute>
 0000:00000000       __guard_longjmp_count      0000000000000000     <absolute>
 0000:00000000       __dynamic_value_reloc_table 0000000000000000     <absolute>
 0000:00000000       __guard_longjmp_table      0000000000000000     <absolute>
 0000:00000000       __guard_fids_count         0000000000000000     <absolute>
 0000:00000000       __guard_iat_table          0000000000000000     <absolute>
 0000:00000000       __guard_fids_table         0000000000000000     <absolute>
 0000:00000000       ___safe_se_handler_count   0000000000000000     <absolute>
 0000:00000000       ___safe_se_handler_table   0000000000000000     <absolute>
 0000:00000100       __guard_flags              0000000000000100     <absolute>
 0000:00000000       __ImageBase                0000000180000000     <linker-defined>
 0001:00000000       load_modello_2017b_levaRetro_acc_optimization_info 0000000180001000 f   modello_2017b_levaRetro_acc_sfun.obj
 0001:000000b0       modello_2017b_levaRetro_acc_debug_initialize 00000001800010b0 f   modello_2017b_levaRetro_acc_sfun.obj
 0001:00000120       modello_2017b_levaRetro_acc_initializer 0000000180001120 f   modello_2017b_levaRetro_acc_sfun.obj
 0001:00000130       modello_2017b_levaRetro_acc_register_exported_symbols 0000000180001130 f   modello_2017b_levaRetro_acc_sfun.obj
 0001:00000140       modello_2017b_levaRetro_acc_terminator 0000000180001140 f   modello_2017b_levaRetro_acc_sfun.obj
 0001:00000150       sf_modello_2017b_levaRetro_acc_autoinheritance_info 0000000180001150 f   modello_2017b_levaRetro_acc_sfun.obj
 0001:000003a0       sf_modello_2017b_levaRetro_acc_get_eml_resolved_functions_info 00000001800013a0 f   modello_2017b_levaRetro_acc_sfun.obj
 0001:000005c0       sf_modello_2017b_levaRetro_acc_jit_fallback_info 00000001800015c0 f   modello_2017b_levaRetro_acc_sfun.obj
 0001:00000810       sf_modello_2017b_levaRetro_acc_method_dispatcher 0000000180001810 f   modello_2017b_levaRetro_acc_sfun.obj
 0001:00000910       sf_modello_2017b_levaRetro_acc_process_check_sum_call 0000000180001910 f   modello_2017b_levaRetro_acc_sfun.obj
 0001:00000c40       sf_modello_2017b_levaRetro_acc_process_testpoint_info_call 0000000180001c40 f   modello_2017b_levaRetro_acc_sfun.obj
 0001:00000df0       sf_modello_2017b_levaRetro_acc_third_party_uses_info 0000000180001df0 f   modello_2017b_levaRetro_acc_sfun.obj
 0001:00001040       sf_modello_2017b_levaRetro_acc_updateBuildInfo_args_info 0000000180002040 f   modello_2017b_levaRetro_acc_sfun.obj
 0001:00001290       unload_modello_2017b_levaRetro_acc_optimization_info 0000000180002290 f   modello_2017b_levaRetro_acc_sfun.obj
 0001:00005650       c1_modello_2017b_levaRetro_acc_method_dispatcher 0000000180006650 f   c1_modello_2017b_levaRetro_acc.obj
 0001:0000e310       sf_c1_modello_2017b_levaRetro_acc_get_autoinheritance_info 000000018000f310 f   c1_modello_2017b_levaRetro_acc.obj
 0001:0000ebb0       sf_c1_modello_2017b_levaRetro_acc_get_check_sum 000000018000fbb0 f   c1_modello_2017b_levaRetro_acc.obj
 0001:0000ec20       sf_c1_modello_2017b_levaRetro_acc_get_eml_resolved_functions_info 000000018000fc20 f   c1_modello_2017b_levaRetro_acc.obj
 0001:0000ec80       sf_c1_modello_2017b_levaRetro_acc_get_post_codegen_info 000000018000fc80 f   c1_modello_2017b_levaRetro_acc.obj
 0001:0000ed40       sf_c1_modello_2017b_levaRetro_acc_get_testpoint_info 000000018000fd40 f   c1_modello_2017b_levaRetro_acc.obj
 0001:0000ed70       sf_c1_modello_2017b_levaRetro_acc_jit_fallback_info 000000018000fd70 f   c1_modello_2017b_levaRetro_acc.obj
 0001:0000eec0       sf_c1_modello_2017b_levaRetro_acc_third_party_uses_info 000000018000fec0 f   c1_modello_2017b_levaRetro_acc.obj
 0001:0000eed0       sf_c1_modello_2017b_levaRetro_acc_updateBuildInfo_args_info 000000018000fed0 f   c1_modello_2017b_levaRetro_acc.obj
 0001:00013f40       c2_modello_2017b_levaRetro_acc_method_dispatcher 0000000180014f40 f   c2_modello_2017b_levaRetro_acc.obj
 0001:00016d90       sf_c2_modello_2017b_levaRetro_acc_get_autoinheritance_info 0000000180017d90 f   c2_modello_2017b_levaRetro_acc.obj
 0001:000172c0       sf_c2_modello_2017b_levaRetro_acc_get_check_sum 00000001800182c0 f   c2_modello_2017b_levaRetro_acc.obj
 0001:00017330       sf_c2_modello_2017b_levaRetro_acc_get_eml_resolved_functions_info 0000000180018330 f   c2_modello_2017b_levaRetro_acc.obj
 0001:00017390       sf_c2_modello_2017b_levaRetro_acc_get_post_codegen_info 0000000180018390 f   c2_modello_2017b_levaRetro_acc.obj
 0001:00017450       sf_c2_modello_2017b_levaRetro_acc_get_testpoint_info 0000000180018450 f   c2_modello_2017b_levaRetro_acc.obj
 0001:00017480       sf_c2_modello_2017b_levaRetro_acc_jit_fallback_info 0000000180018480 f   c2_modello_2017b_levaRetro_acc.obj
 0001:000175d0       sf_c2_modello_2017b_levaRetro_acc_third_party_uses_info 00000001800185d0 f   c2_modello_2017b_levaRetro_acc.obj
 0001:000175e0       sf_c2_modello_2017b_levaRetro_acc_updateBuildInfo_args_info 00000001800185e0 f   c2_modello_2017b_levaRetro_acc.obj
 0001:0001bef0       c3_modello_2017b_levaRetro_acc_method_dispatcher 000000018001cef0 f   c3_modello_2017b_levaRetro_acc.obj
 0001:00024bb0       sf_c3_modello_2017b_levaRetro_acc_get_autoinheritance_info 0000000180025bb0 f   c3_modello_2017b_levaRetro_acc.obj
 0001:00025450       sf_c3_modello_2017b_levaRetro_acc_get_check_sum 0000000180026450 f   c3_modello_2017b_levaRetro_acc.obj
 0001:000254c0       sf_c3_modello_2017b_levaRetro_acc_get_eml_resolved_functions_info 00000001800264c0 f   c3_modello_2017b_levaRetro_acc.obj
 0001:00025520       sf_c3_modello_2017b_levaRetro_acc_get_post_codegen_info 0000000180026520 f   c3_modello_2017b_levaRetro_acc.obj
 0001:000255e0       sf_c3_modello_2017b_levaRetro_acc_get_testpoint_info 00000001800265e0 f   c3_modello_2017b_levaRetro_acc.obj
 0001:00025610       sf_c3_modello_2017b_levaRetro_acc_jit_fallback_info 0000000180026610 f   c3_modello_2017b_levaRetro_acc.obj
 0001:00025760       sf_c3_modello_2017b_levaRetro_acc_third_party_uses_info 0000000180026760 f   c3_modello_2017b_levaRetro_acc.obj
 0001:00025770       sf_c3_modello_2017b_levaRetro_acc_updateBuildInfo_args_info 0000000180026770 f   c3_modello_2017b_levaRetro_acc.obj
 0001:00029a00       c27_modello_2017b_levaRetro_acc_method_dispatcher 000000018002aa00 f   c27_modello_2017b_levaRetro_acc.obj
 0001:0002cf10       sf_c27_modello_2017b_levaRetro_acc_get_autoinheritance_info 000000018002df10 f   c27_modello_2017b_levaRetro_acc.obj
 0001:0002da50       sf_c27_modello_2017b_levaRetro_acc_get_check_sum 000000018002ea50 f   c27_modello_2017b_levaRetro_acc.obj
 0001:0002dac0       sf_c27_modello_2017b_levaRetro_acc_get_eml_resolved_functions_info 000000018002eac0 f   c27_modello_2017b_levaRetro_acc.obj
 0001:0002db20       sf_c27_modello_2017b_levaRetro_acc_get_post_codegen_info 000000018002eb20 f   c27_modello_2017b_levaRetro_acc.obj
 0001:0002dbe0       sf_c27_modello_2017b_levaRetro_acc_get_testpoint_info 000000018002ebe0 f   c27_modello_2017b_levaRetro_acc.obj
 0001:0002dc10       sf_c27_modello_2017b_levaRetro_acc_jit_fallback_info 000000018002ec10 f   c27_modello_2017b_levaRetro_acc.obj
 0001:0002dd60       sf_c27_modello_2017b_levaRetro_acc_third_party_uses_info 000000018002ed60 f   c27_modello_2017b_levaRetro_acc.obj
 0001:0002dd70       sf_c27_modello_2017b_levaRetro_acc_updateBuildInfo_args_info 000000018002ed70 f   c27_modello_2017b_levaRetro_acc.obj
 0001:00032f00       c52_modello_2017b_levaRetro_acc_method_dispatcher 0000000180033f00 f   c52_modello_2017b_levaRetro_acc.obj
 0001:00039510       sf_c52_modello_2017b_levaRetro_acc_get_autoinheritance_info 000000018003a510 f   c52_modello_2017b_levaRetro_acc.obj
 0001:0003a2c0       sf_c52_modello_2017b_levaRetro_acc_get_check_sum 000000018003b2c0 f   c52_modello_2017b_levaRetro_acc.obj
 0001:0003a330       sf_c52_modello_2017b_levaRetro_acc_get_eml_resolved_functions_info 000000018003b330 f   c52_modello_2017b_levaRetro_acc.obj
 0001:0003a390       sf_c52_modello_2017b_levaRetro_acc_get_post_codegen_info 000000018003b390 f   c52_modello_2017b_levaRetro_acc.obj
 0001:0003a450       sf_c52_modello_2017b_levaRetro_acc_get_testpoint_info 000000018003b450 f   c52_modello_2017b_levaRetro_acc.obj
 0001:0003a480       sf_c52_modello_2017b_levaRetro_acc_jit_fallback_info 000000018003b480 f   c52_modello_2017b_levaRetro_acc.obj
 0001:0003a5d0       sf_c52_modello_2017b_levaRetro_acc_third_party_uses_info 000000018003b5d0 f   c52_modello_2017b_levaRetro_acc.obj
 0001:0003a5e0       sf_c52_modello_2017b_levaRetro_acc_updateBuildInfo_args_info 000000018003b5e0 f   c52_modello_2017b_levaRetro_acc.obj
 0001:00042270       c152_modello_2017b_levaRetro_acc_method_dispatcher 0000000180043270 f   c152_modello_2017b_levaRetro_acc.obj
 0001:000495f0       sf_c152_modello_2017b_levaRetro_acc_get_autoinheritance_info 000000018004a5f0 f   c152_modello_2017b_levaRetro_acc.obj
 0001:0004a4e0       sf_c152_modello_2017b_levaRetro_acc_get_check_sum 000000018004b4e0 f   c152_modello_2017b_levaRetro_acc.obj
 0001:0004a550       sf_c152_modello_2017b_levaRetro_acc_get_eml_resolved_functions_info 000000018004b550 f   c152_modello_2017b_levaRetro_acc.obj
 0001:0004a5b0       sf_c152_modello_2017b_levaRetro_acc_get_post_codegen_info 000000018004b5b0 f   c152_modello_2017b_levaRetro_acc.obj
 0001:0004a670       sf_c152_modello_2017b_levaRetro_acc_get_testpoint_info 000000018004b670 f   c152_modello_2017b_levaRetro_acc.obj
 0001:0004a6a0       sf_c152_modello_2017b_levaRetro_acc_jit_fallback_info 000000018004b6a0 f   c152_modello_2017b_levaRetro_acc.obj
 0001:0004a7f0       sf_c152_modello_2017b_levaRetro_acc_third_party_uses_info 000000018004b7f0 f   c152_modello_2017b_levaRetro_acc.obj
 0001:0004a800       sf_c152_modello_2017b_levaRetro_acc_updateBuildInfo_args_info 000000018004b800 f   c152_modello_2017b_levaRetro_acc.obj
 0001:0004d350       c451_modello_2017b_levaRetro_acc_method_dispatcher 000000018004e350 f   c451_modello_2017b_levaRetro_acc.obj
 0001:000556b0       sf_c451_modello_2017b_levaRetro_acc_get_autoinheritance_info 00000001800566b0 f   c451_modello_2017b_levaRetro_acc.obj
 0001:00056120       sf_c451_modello_2017b_levaRetro_acc_get_check_sum 0000000180057120 f   c451_modello_2017b_levaRetro_acc.obj
 0001:00056190       sf_c451_modello_2017b_levaRetro_acc_get_eml_resolved_functions_info 0000000180057190 f   c451_modello_2017b_levaRetro_acc.obj
 0001:000561f0       sf_c451_modello_2017b_levaRetro_acc_get_post_codegen_info 00000001800571f0 f   c451_modello_2017b_levaRetro_acc.obj
 0001:000562b0       sf_c451_modello_2017b_levaRetro_acc_get_testpoint_info 00000001800572b0 f   c451_modello_2017b_levaRetro_acc.obj
 0001:000562e0       sf_c451_modello_2017b_levaRetro_acc_jit_fallback_info 00000001800572e0 f   c451_modello_2017b_levaRetro_acc.obj
 0001:00056430       sf_c451_modello_2017b_levaRetro_acc_third_party_uses_info 0000000180057430 f   c451_modello_2017b_levaRetro_acc.obj
 0001:00056440       sf_c451_modello_2017b_levaRetro_acc_updateBuildInfo_args_info 0000000180057440 f   c451_modello_2017b_levaRetro_acc.obj
 0001:00059320       c463_modello_2017b_levaRetro_acc_method_dispatcher 000000018005a320 f   c463_modello_2017b_levaRetro_acc.obj
 0001:00061680       sf_c463_modello_2017b_levaRetro_acc_get_autoinheritance_info 0000000180062680 f   c463_modello_2017b_levaRetro_acc.obj
 0001:000620f0       sf_c463_modello_2017b_levaRetro_acc_get_check_sum 00000001800630f0 f   c463_modello_2017b_levaRetro_acc.obj
 0001:00062160       sf_c463_modello_2017b_levaRetro_acc_get_eml_resolved_functions_info 0000000180063160 f   c463_modello_2017b_levaRetro_acc.obj
 0001:000621c0       sf_c463_modello_2017b_levaRetro_acc_get_post_codegen_info 00000001800631c0 f   c463_modello_2017b_levaRetro_acc.obj
 0001:00062280       sf_c463_modello_2017b_levaRetro_acc_get_testpoint_info 0000000180063280 f   c463_modello_2017b_levaRetro_acc.obj
 0001:000622b0       sf_c463_modello_2017b_levaRetro_acc_jit_fallback_info 00000001800632b0 f   c463_modello_2017b_levaRetro_acc.obj
 0001:00062400       sf_c463_modello_2017b_levaRetro_acc_third_party_uses_info 0000000180063400 f   c463_modello_2017b_levaRetro_acc.obj
 0001:00062410       sf_c463_modello_2017b_levaRetro_acc_updateBuildInfo_args_info 0000000180063410 f   c463_modello_2017b_levaRetro_acc.obj
 0001:00062ea0       ProcessMexSfunctionEveryCall 0000000180063ea0 f   modello_2017b_levaRetro_acc_sfun_registry.obj
 0001:000638a0       __local_stdio_printf_options 00000001800648a0 f i modello_2017b_levaRetro_acc_sfun_registry.obj
 0001:000638b0       _ssGetAbsTol               00000001800648b0 f   modello_2017b_levaRetro_acc_sfun_registry.obj
 0001:00063970       _ssGetCallSystemNumFcnCallDestinations 0000000180064970 f   modello_2017b_levaRetro_acc_sfun_registry.obj
 0001:000639b0       _ssGetCompInputPortSymbolicDimsId 00000001800649b0 f   modello_2017b_levaRetro_acc_sfun_registry.obj
 0001:000639f0       _ssGetCompOutputPortSymbolicDimsId 00000001800649f0 f   modello_2017b_levaRetro_acc_sfun_registry.obj
 0001:00063a30       _ssGetCurrentInputPortWidth 0000000180064a30 f   modello_2017b_levaRetro_acc_sfun_registry.obj
 0001:00063a90       _ssGetCurrentOutputPortWidth 0000000180064a90 f   modello_2017b_levaRetro_acc_sfun_registry.obj
 0001:00063af0       _ssGetIWorkValueFcn        0000000180064af0 f   modello_2017b_levaRetro_acc_sfun_registry.obj
 0001:00063bb0       _ssGetInputPortSignalFcn   0000000180064bb0 f   modello_2017b_levaRetro_acc_sfun_registry.obj
 0001:00063dd0       _ssGetInputPortSignalPtrsFcn 0000000180064dd0 f   modello_2017b_levaRetro_acc_sfun_registry.obj
 0001:00063ff0       _ssGetNumSymbolicDims      0000000180064ff0 f   modello_2017b_levaRetro_acc_sfun_registry.obj
 0001:00064040       _ssGetPWorkValueFcn        0000000180065040 f   modello_2017b_levaRetro_acc_sfun_registry.obj
 0001:00064100       _ssGetRWorkValueFcn        0000000180065100 f   modello_2017b_levaRetro_acc_sfun_registry.obj
 0001:000641c0       _ssGetSymbolicDim          00000001800651c0 f   modello_2017b_levaRetro_acc_sfun_registry.obj
 0001:00064200       _ssRegisterSymbolicDims    0000000180065200 f   modello_2017b_levaRetro_acc_sfun_registry.obj
 0001:00064250       _ssRegisterSymbolicDimsDivide 0000000180065250 f   modello_2017b_levaRetro_acc_sfun_registry.obj
 0001:00064290       _ssRegisterSymbolicDimsExpr 0000000180065290 f   modello_2017b_levaRetro_acc_sfun_registry.obj
 0001:000642e0       _ssRegisterSymbolicDimsIntValue 00000001800652e0 f   modello_2017b_levaRetro_acc_sfun_registry.obj
 0001:00064320       _ssRegisterSymbolicDimsMinus 0000000180065320 f   modello_2017b_levaRetro_acc_sfun_registry.obj
 0001:00064360       _ssRegisterSymbolicDimsMultiply 0000000180065360 f   modello_2017b_levaRetro_acc_sfun_registry.obj
 0001:000643a0       _ssRegisterSymbolicDimsPlus 00000001800653a0 f   modello_2017b_levaRetro_acc_sfun_registry.obj
 0001:000643e0       _ssRegisterSymbolicDimsString 00000001800653e0 f   modello_2017b_levaRetro_acc_sfun_registry.obj
 0001:00064430       _ssSetCompDWorkSymbolicDimsId 0000000180065430 f   modello_2017b_levaRetro_acc_sfun_registry.obj
 0001:00064470       _ssSetCompInputPortSymbolicDimsId 0000000180065470 f   modello_2017b_levaRetro_acc_sfun_registry.obj
 0001:000644b0       _ssSetCompOutputPortSymbolicDimsId 00000001800654b0 f   modello_2017b_levaRetro_acc_sfun_registry.obj
 0001:000644f0       _ssSetIWorkValueFcn        00000001800654f0 f   modello_2017b_levaRetro_acc_sfun_registry.obj
 0001:000645b0       _ssSetInputPortDirectFeedThroughFcn 00000001800655b0 f   modello_2017b_levaRetro_acc_sfun_registry.obj
 0001:000646c0       _ssSetInputPortMatrixDimensions 00000001800656c0 f   modello_2017b_levaRetro_acc_sfun_registry.obj
 0001:00064760       _ssSetInputPortReusableFcn 0000000180065760 f   modello_2017b_levaRetro_acc_sfun_registry.obj
 0001:00064820       _ssSetInputPortSymbolicDimsId 0000000180065820 f   modello_2017b_levaRetro_acc_sfun_registry.obj
 0001:00064860       _ssSetInputPortVectorDimension 0000000180065860 f   modello_2017b_levaRetro_acc_sfun_registry.obj
 0001:000648c0       _ssSetOutputPortMatrixDimensions 00000001800658c0 f   modello_2017b_levaRetro_acc_sfun_registry.obj
 0001:00064960       _ssSetOutputPortReusableFcn 0000000180065960 f   modello_2017b_levaRetro_acc_sfun_registry.obj
 0001:00064a20       _ssSetOutputPortSymbolicDimsId 0000000180065a20 f   modello_2017b_levaRetro_acc_sfun_registry.obj
 0001:00064a60       _ssSetOutputPortVectorDimension 0000000180065a60 f   modello_2017b_levaRetro_acc_sfun_registry.obj
 0001:00064ac0       _ssSetPWorkValueFcn        0000000180065ac0 f   modello_2017b_levaRetro_acc_sfun_registry.obj
 0001:00064b80       _ssSetRWorkValueFcn        0000000180065b80 f   modello_2017b_levaRetro_acc_sfun_registry.obj
 0001:00064c40       _ssSetStateAbsTol          0000000180065c40 f   modello_2017b_levaRetro_acc_sfun_registry.obj
 0001:00064cb0       _ssSetSymbolicDimsSupport  0000000180065cb0 f   modello_2017b_levaRetro_acc_sfun_registry.obj
 0001:00064ce0       _vsnprintf_l               0000000180065ce0 f i modello_2017b_levaRetro_acc_sfun_registry.obj
 0001:00064d50       _vsprintf_l                0000000180065d50 f i modello_2017b_levaRetro_acc_sfun_registry.obj
 0001:00064dc0       callCustomFcn              0000000180065dc0 f   modello_2017b_levaRetro_acc_sfun_registry.obj
 0001:00064e10       mdlGetSimState             0000000180065e10 f   modello_2017b_levaRetro_acc_sfun_registry.obj
 0001:00064f20       mdlSetSimState             0000000180065f20 f   modello_2017b_levaRetro_acc_sfun_registry.obj
 0001:00065320       mexFunction                0000000180066320 f   modello_2017b_levaRetro_acc_sfun_registry.obj
 0001:00066040       sf_machine_global_initializer 0000000180067040 f   modello_2017b_levaRetro_acc_sfun_registry.obj
 0001:000660a0       sf_machine_global_initializer_called 00000001800670a0 f   modello_2017b_levaRetro_acc_sfun_registry.obj
 0001:000660b0       sf_machine_global_method_dispatcher 00000001800670b0 f   modello_2017b_levaRetro_acc_sfun_registry.obj
 0001:00066120       sf_machine_global_terminator 0000000180067120 f   modello_2017b_levaRetro_acc_sfun_registry.obj
 0001:00066150       sf_mex_unlock_call         0000000180067150 f   modello_2017b_levaRetro_acc_sfun_registry.obj
 0001:000661f0       sf_process_autoinheritance_call 00000001800671f0 f   modello_2017b_levaRetro_acc_sfun_registry.obj
 0001:00066300       sf_process_check_sum_call  0000000180067300 f   modello_2017b_levaRetro_acc_sfun_registry.obj
 0001:00066320       sf_process_get_eml_resolved_functions_info_call 0000000180067320 f   modello_2017b_levaRetro_acc_sfun_registry.obj
 0001:00066430       sf_process_get_jit_fallback_info_call 0000000180067430 f   modello_2017b_levaRetro_acc_sfun_registry.obj
 0001:00066540       sf_process_get_third_party_uses_info_call 0000000180067540 f   modello_2017b_levaRetro_acc_sfun_registry.obj
 0001:00066650       sf_process_get_updateBuildInfo_args_info_call 0000000180067650 f   modello_2017b_levaRetro_acc_sfun_registry.obj
 0001:00066760       sf_process_testpoint_info_call 0000000180067760 f   modello_2017b_levaRetro_acc_sfun_registry.obj
 0001:00066780       sf_register_machine_exported_symbols 0000000180067780 f   modello_2017b_levaRetro_acc_sfun_registry.obj
 0001:00066790       sprintf                    0000000180067790 f i modello_2017b_levaRetro_acc_sfun_registry.obj
 0001:000667f0       ssCloneAndAddZcSignalInfo  00000001800677f0 f   modello_2017b_levaRetro_acc_sfun_registry.obj
 0001:00066830       ssCreateAndAddZcSignalInfo 0000000180067830 f   modello_2017b_levaRetro_acc_sfun_registry.obj
 0001:00066870       ssGetDTypeIdFromMxArray    0000000180067870 f   modello_2017b_levaRetro_acc_sfun_registry.obj
 0001:00066940       ssGetIsInputPortElementContinuous 0000000180067940 f   modello_2017b_levaRetro_acc_sfun_registry.obj
 0001:000669b0       ssGetIsZeroCrossControlDisabled 00000001800679b0 f   modello_2017b_levaRetro_acc_sfun_registry.obj
 0001:000669f0       ssGetNumZcSignals          00000001800679f0 f   modello_2017b_levaRetro_acc_sfun_registry.obj
 0001:00066a30       ssGetParameterTuningCompliance 0000000180067a30 f   modello_2017b_levaRetro_acc_sfun_registry.obj
 0001:00066a70       ssGetSFuncBlockHandle      0000000180067a70 f   modello_2017b_levaRetro_acc_sfun_registry.obj
 0001:00066ab0       ssGetZcSignalIsZcElementDisc 0000000180067ab0 f   modello_2017b_levaRetro_acc_sfun_registry.obj
 0001:00066b20       ssGetZcSignalName          0000000180067b20 f   modello_2017b_levaRetro_acc_sfun_registry.obj
 0001:00066b70       ssGetZcSignalNeedsEventNotification 0000000180067b70 f   modello_2017b_levaRetro_acc_sfun_registry.obj
 0001:00066bb0       ssGetZcSignalType          0000000180067bb0 f   modello_2017b_levaRetro_acc_sfun_registry.obj
 0001:00066bf0       ssGetZcSignalVector        0000000180067bf0 f   modello_2017b_levaRetro_acc_sfun_registry.obj
 0001:00066c40       ssGetZcSignalWidth         0000000180067c40 f   modello_2017b_levaRetro_acc_sfun_registry.obj
 0001:00066c80       ssGetZcSignalZcEventType   0000000180067c80 f   modello_2017b_levaRetro_acc_sfun_registry.obj
 0001:00066cc0       ssGetZcSignalZcEvents      0000000180067cc0 f   modello_2017b_levaRetro_acc_sfun_registry.obj
 0001:00066d10       ssGetZcSignalZcTol         0000000180067d10 f   modello_2017b_levaRetro_acc_sfun_registry.obj
 0001:00066d50       ssIsRunTimeParamTunable    0000000180067d50 f   modello_2017b_levaRetro_acc_sfun_registry.obj
 0001:00066d90       ssSetIsInputPortUsedForContZcSignal 0000000180067d90 f   modello_2017b_levaRetro_acc_sfun_registry.obj
 0001:00066dd0       ssSetZcSignalIsZcElementDisc 0000000180067dd0 f   modello_2017b_levaRetro_acc_sfun_registry.obj
 0001:00066e30       ssSetZcSignalName          0000000180067e30 f   modello_2017b_levaRetro_acc_sfun_registry.obj
 0001:00066e60       ssSetZcSignalNeedsEventNotification 0000000180067e60 f   modello_2017b_levaRetro_acc_sfun_registry.obj
 0001:00066ea0       ssSetZcSignalType          0000000180067ea0 f   modello_2017b_levaRetro_acc_sfun_registry.obj
 0001:00066ee0       ssSetZcSignalWidth         0000000180067ee0 f   modello_2017b_levaRetro_acc_sfun_registry.obj
 0001:00066f20       ssSetZcSignalZcEventType   0000000180067f20 f   modello_2017b_levaRetro_acc_sfun_registry.obj
 0001:00066f60       ssSetZcSignalZcTol         0000000180067f60 f   modello_2017b_levaRetro_acc_sfun_registry.obj
 0001:00066fa0       ssWarning                  0000000180067fa0 f   modello_2017b_levaRetro_acc_sfun_registry.obj
 0001:00067080       ssWriteRTWMx2dMatParam     0000000180068080 f   modello_2017b_levaRetro_acc_sfun_registry.obj
 0001:000670d0       ssWriteRTWMxVectParam      00000001800680d0 f   modello_2017b_levaRetro_acc_sfun_registry.obj
 0001:00067110       ssWriteRTWNameValuePair    0000000180068110 f   modello_2017b_levaRetro_acc_sfun_registry.obj
 0001:00067300       ssWriteRTWParamSettings    0000000180068300 f   modello_2017b_levaRetro_acc_sfun_registry.obj
 0001:000675d0       ssWriteRTWParameters       00000001800685d0 f   modello_2017b_levaRetro_acc_sfun_registry.obj
 0001:000677c0       ssWriteRTWStr              00000001800687c0 f   modello_2017b_levaRetro_acc_sfun_registry.obj
 0001:000677e0       ssWriteRTWWorkVect         00000001800687e0 f   modello_2017b_levaRetro_acc_sfun_registry.obj
 0001:00067bf0       mexfilerequiredapiversion  0000000180068bf0 f   c_mexapi_version.obj
 0001:00067bfe       sf_load_rtw_optimization_info 0000000180068bfe f   sf_runtime:sf_runtime.dll
 0001:00067c04       sf_debug_initialize_machine 0000000180068c04 f   sf_runtime:sf_runtime.dll
 0001:00067c0a       sf_debug_set_machine_event_thresholds 0000000180068c0a f   sf_runtime:sf_runtime.dll
 0001:00067c10       sf_debug_set_machine_data_thresholds 0000000180068c10 f   sf_runtime:sf_runtime.dll
 0001:00067c16       sf_init_ChartRunTimeInfo   0000000180068c16 f   sf_runtime:sf_runtime.dll
 0001:00067c1c       sf_free_ChartRunTimeInfo   0000000180068c1c f   sf_runtime:sf_runtime.dll
 0001:00067c22       sfrtGetEmlrtCtx            0000000180068c22 f   sf_runtime:sf_runtime.dll
 0001:00067c28       sf_get_chart_instance_ptr  0000000180068c28 f   sf_runtime:sf_runtime.dll
 0001:00067c2e       sf_rtw_info_uint_prop      0000000180068c2e f   sf_runtime:sf_runtime.dll
 0001:00067c34       sf_update_buildInfo        0000000180068c34 f   sf_runtime:sf_runtime.dll
 0001:00067c3a       sf_is_chart_inlinable      0000000180068c3a f   sf_runtime:sf_runtime.dll
 0001:00067c40       sf_mark_chart_reusable_outputs 0000000180068c40 f   sf_runtime:sf_runtime.dll
 0001:00067c46       sf_mark_chart_expressionable_inputs 0000000180068c46 f   sf_runtime:sf_runtime.dll
 0001:00067c4c       sim_mode_is_rtw_gen        0000000180068c4c f   sf_runtime:sf_runtime.dll
 0001:00067c52       sim_mode_is_external       0000000180068c52 f   sf_runtime:sf_runtime.dll
 0001:00067c58       sim_mode_is_modelref_sim   0000000180068c58 f   sf_runtime:sf_runtime.dll
 0001:00067c5e       sf_clear_rtw_identifier    0000000180068c5e f   sf_runtime:sf_runtime.dll
 0001:00067c64       sf_set_rtw_dwork_info      0000000180068c64 f   sf_runtime:sf_runtime.dll
 0001:00067c6a       sf_get_dwork_info_from_mat_file 0000000180068c6a f   sf_runtime:sf_runtime.dll
 0001:00067c70       sf_set_encoded_dwork_info  0000000180068c70 f   sf_runtime:sf_runtime.dll
 0001:00067c76       sf_get_time                0000000180068c76 f   sf_runtime:sf_runtime.dll
 0001:00067c7c       sf_is_first_init_cond      0000000180068c7c f   sf_runtime:sf_runtime.dll
 0001:00067c82       sf_set_chart_accesses_machine_info 0000000180068c82 f   sf_runtime:sf_runtime.dll
 0001:00067c88       sf_register_codegen_names_for_scoped_functions_defined_by_chart 0000000180068c88 f   sf_runtime:sf_runtime.dll
 0001:00067c8e       ssSetBlockIsPurelyCombinatorial_wrapper 0000000180068c8e f   sf_runtime:sf_runtime.dll
 0001:00067c94       sf_mex_error_message       0000000180068c94 f   sf_runtime:sf_runtime.dll
 0001:00067c9a       sf_mex_create              0000000180068c9a f   sf_runtime:sf_runtime.dll
 0001:00067ca0       sf_mex_createcellmatrix    0000000180068ca0 f   sf_runtime:sf_runtime.dll
 0001:00067ca6       sf_mex_setcell             0000000180068ca6 f   sf_runtime:sf_runtime.dll
 0001:00067cac       sf_mex_getcell             0000000180068cac f   sf_runtime:sf_runtime.dll
 0001:00067cb2       sf_mex_assign              0000000180068cb2 f   sf_runtime:sf_runtime.dll
 0001:00067cb8       sf_mex_dup                 0000000180068cb8 f   sf_runtime:sf_runtime.dll
 0001:00067cbe       sf_mex_destroy             0000000180068cbe f   sf_runtime:sf_runtime.dll
 0001:00067cc4       sf_mex_import              0000000180068cc4 f   sf_runtime:sf_runtime.dll
 0001:00067cca       sf_mex_decode_encoded_mx_struct_array 0000000180068cca f   sf_runtime:sf_runtime.dll
 0001:00067cd0       sf_mex_duplicatearraysafe  0000000180068cd0 f   sf_runtime:sf_runtime.dll
 0001:00067cd6       ssGetDWork_wrapper         0000000180068cd6 f   sf_runtime:sf_runtime.dll
 0001:00067cdc       ssGetInputPortSignal_wrapper 0000000180068cdc f   sf_runtime:sf_runtime.dll
 0001:00067ce2       ssGetOutputPortSignal_wrapper 0000000180068ce2 f   sf_runtime:sf_runtime.dll
 0001:00067ce8       sf_debug_initialize_chart  0000000180068ce8 f   sf_runtime:sf_runtime.dll
 0001:00067cee       sf_debug_call              0000000180068cee f   sf_runtime:sf_runtime.dll
 0001:00067cf4       cv_eval_point              0000000180068cf4 f   sf_runtime:sf_runtime.dll
 0001:00067cfa       cv_eml_eval                0000000180068cfa f   sf_runtime:sf_runtime.dll
 0001:00067d00       cv_eval_relational         0000000180068d00 f   sf_runtime:sf_runtime.dll
 0001:00067d06       cv_eml_init_script         0000000180068d06 f   sf_runtime:sf_runtime.dll
 0001:00067d0c       cv_eml_init_if             0000000180068d0c f   sf_runtime:sf_runtime.dll
 0001:00067d12       cv_eml_init_mcdc           0000000180068d12 f   sf_runtime:sf_runtime.dll
 0001:00067d18       cv_eml_init_relational     0000000180068d18 f   sf_runtime:sf_runtime.dll
 0001:00067d1e       sf_debug_reset_current_state_configuration 0000000180068d1e f   sf_runtime:sf_runtime.dll
 0001:00067d24       sf_debug_check_for_state_inconsistency 0000000180068d24 f   sf_runtime:sf_runtime.dll
 0001:00067d2a       sf_debug_set_honor_breakpoints 0000000180068d2a f   sf_runtime:sf_runtime.dll
 0001:00067d30       sf_debug_get_animation     0000000180068d30 f   sf_runtime:sf_runtime.dll
 0001:00067d36       sf_debug_set_animation     0000000180068d36 f   sf_runtime:sf_runtime.dll
 0001:00067d3c       sf_debug_animate           0000000180068d3c f   sf_runtime:sf_runtime.dll
 0001:00067d42       sf_debug_set_chart_data_props 0000000180068d42 f   sf_runtime:sf_runtime.dll
 0001:00067d48       sf_debug_set_chart_data_compiled_props 0000000180068d48 f   sf_runtime:sf_runtime.dll
 0001:00067d4e       sf_debug_symbol_scope_push 0000000180068d4e f   sf_runtime:sf_runtime.dll
 0001:00067d54       sf_debug_symbol_scope_push_eml 0000000180068d54 f   sf_runtime:sf_runtime.dll
 0001:00067d5a       sf_debug_symbol_scope_pop  0000000180068d5a f   sf_runtime:sf_runtime.dll
 0001:00067d60       sf_debug_symbol_scope_add_eml_importable 0000000180068d60 f   sf_runtime:sf_runtime.dll
 0001:00067d66       sf_debug_set_instance_data_value_ptr 0000000180068d66 f   sf_runtime:sf_runtime.dll
 0001:00067d6c       sf_debug_set_chart_disable_implicit_casting 0000000180068d6c f   sf_runtime:sf_runtime.dll
 0001:00067d72       sf_debug_set_chart_event_thresholds 0000000180068d72 f   sf_runtime:sf_runtime.dll
 0001:00067d78       sf_debug_set_chart_state_info 0000000180068d78 f   sf_runtime:sf_runtime.dll
 0001:00067d7e       sf_debug_set_chart_decomposition 0000000180068d7e f   sf_runtime:sf_runtime.dll
 0001:00067d84       sf_debug_set_chart_substate_count 0000000180068d84 f   sf_runtime:sf_runtime.dll
 0001:00067d8a       sf_debug_set_chart_substate_index 0000000180068d8a f   sf_runtime:sf_runtime.dll
 0001:00067d90       sf_debug_set_chart_state_substate_count 0000000180068d90 f   sf_runtime:sf_runtime.dll
 0001:00067d96       sf_debug_set_chart_state_substate_index 0000000180068d96 f   sf_runtime:sf_runtime.dll
 0001:00067d9c       sf_debug_data_range_wrapper 0000000180068d9c f   sf_runtime:sf_runtime.dll
 0001:00067da2       sf_debug_cv_init_trans     0000000180068da2 f   sf_runtime:sf_runtime.dll
 0001:00067da8       sf_debug_cv_init_chart     0000000180068da8 f   sf_runtime:sf_runtime.dll
 0001:00067dae       sf_debug_cv_init_state     0000000180068dae f   sf_runtime:sf_runtime.dll
 0001:00067db4       sf_debug_read_before_write_error 0000000180068db4 f   sf_runtime:sf_runtime.dll
 0001:00067dba       sf_mex_get_sfun_param      0000000180068dba f   sf_runtime:sf_runtime.dll
 0001:00067dc0       sf_get_output_port_reusable 0000000180068dc0 f   sf_runtime:sf_runtime.dll
 0001:00067dc6       sf_mex_import_named        0000000180068dc6 f   sf_runtime:sf_runtime.dll
 0001:00067dcc       sf_eml_array_bounds_check  0000000180068dcc f   sf_runtime:sf_runtime.dll
 0001:00067dd2       sf_integer_check           0000000180068dd2 f   sf_runtime:sf_runtime.dll
 0001:00067dd8       eml_debug_line_call        0000000180068dd8 f   sf_runtime:sf_runtime.dll
 0001:00067dde       cv_eml_init_fcn            0000000180068dde f   sf_runtime:sf_runtime.dll
 0001:00067de4       sf_debug_unset_instance_data_value_ptr 0000000180068de4 f   sf_runtime:sf_runtime.dll
 0001:00067dea       sf_debug_cv_init_relationalop 0000000180068dea f   sf_runtime:sf_runtime.dll
 0001:00067df0       sf_get_ChartInfoStruct_CodeGen 0000000180068df0 f   sf_runtime:sf_runtime.dll
 0001:00067df6       sf_get_hasSeparateUpdateOutputs 0000000180068df6 f   sf_runtime:sf_runtime.dll
 0001:00067dfc       callMdlMethodAndReportError 0000000180068dfc f   sf_runtime:sf_runtime.dll
 0001:00067e02       call_sf_machine_global_method_dispatcher 0000000180068e02 f   sf_runtime:sf_runtime.dll
 0001:00067e08       getRuntimeInstanceInfoAsVoid 0000000180068e08 f   sf_runtime:sf_runtime.dll
 0001:00067e0e       sf_mex_error_direct_call   0000000180068e0e f   sf_runtime:sf_runtime.dll
 0001:00067e14       sf_clear_error_manager_info 0000000180068e14 f   sf_runtime:sf_runtime.dll
 0001:00067e1a       sf_debug_create_debug_instance_struct 0000000180068e1a f   sf_runtime:sf_runtime.dll
 0001:00067e20       sf_debug_terminate         0000000180068e20 f   sf_runtime:sf_runtime.dll
 0001:00067e26       sf_debug_api               0000000180068e26 f   sf_runtime:sf_runtime.dll
 0001:00067e2c       mxIsChar                   0000000180068e2c f   libmx:libmx.dll
 0001:00067e32       mxGetPr                    0000000180068e32 f   libmx:libmx.dll
 0001:00067e38       mxGetScalar                0000000180068e38 f   libmx:libmx.dll
 0001:00067e3e       mxDestroyArray             0000000180068e3e f   libmx:libmx.dll
 0001:00067e44       mxCreateDoubleMatrix_730   0000000180068e44 f   libmx:libmx.dll
 0001:00067e4a       mxGetString_730            0000000180068e4a f   libmx:libmx.dll
 0001:00067e50       mxDuplicateArray           0000000180068e50 f   libmx:libmx.dll
 0001:00067e56       mxSetField_730             0000000180068e56 f   libmx:libmx.dll
 0001:00067e5c       mxCreateDoubleScalar       0000000180068e5c f   libmx:libmx.dll
 0001:00067e62       mxCreateString             0000000180068e62 f   libmx:libmx.dll
 0001:00067e68       mxCreateCellMatrix_730     0000000180068e68 f   libmx:libmx.dll
 0001:00067e6e       mxCreateCellArray_730      0000000180068e6e f   libmx:libmx.dll
 0001:00067e74       mxCreateStructMatrix_730   0000000180068e74 f   libmx:libmx.dll
 0001:00067e7a       mxCreateStructArray_730    0000000180068e7a f   libmx:libmx.dll
 0001:00067e80       mxCalloc                   0000000180068e80 f   libmx:libmx.dll
 0001:00067e86       mxGetM                     0000000180068e86 f   libmx:libmx.dll
 0001:00067e8c       mxGetClassID               0000000180068e8c f   libmx:libmx.dll
 0001:00067e92       mxIsNumeric                0000000180068e92 f   libmx:libmx.dll
 0001:00067e98       mxIsComplex                0000000180068e98 f   libmx:libmx.dll
 0001:00067e9e       mxGetN                     0000000180068e9e f   libmx:libmx.dll
 0001:00067ea4       mexMakeArrayPersistent     0000000180068ea4 f   libmex:libmex.dll
 0001:00067eaa       mexErrMsgTxt               0000000180068eaa f   libmex:libmex.dll
 0001:00067eb0       mexWarnMsgTxt              0000000180068eb0 f   libmex:libmex.dll
 0001:00067eb6       mexCallMATLABWithObject    0000000180068eb6 f   libmex:libmex.dll
 0001:00067ebc       mexLock                    0000000180068ebc f   libmex:libmex.dll
 0001:00067ec2       mexUnlock                  0000000180068ec2 f   libmex:libmex.dll
 0001:00067ec8       mexIsLocked                0000000180068ec8 f   libmex:libmex.dll
 0001:00067ece       utMalloc                   0000000180068ece f   libut:libut.dll
 0001:00067ed4       utFree                     0000000180068ed4 f   libut:libut.dll
 0001:00067eda       muDoubleScalarAbs          0000000180068eda f   libmwmathutil:libmwmathutil.dll
 0001:00067ee0       __GSHandlerCheck           0000000180068ee0 f   MSVCRT:_gshandler_.obj
 0001:00067f00       __GSHandlerCheckCommon     0000000180068f00 f   MSVCRT:_gshandler_.obj
 0001:00067f70       __security_check_cookie    0000000180068f70 f   MSVCRT:_amdsecgs_.obj
 0001:000682e0       _CRT_INIT                  00000001800692e0 f   MSVCRT:dll_dllmain.obj
 0001:000682e8       _DllMainCRTStartup         00000001800692e8 f   MSVCRT:dll_dllmain.obj
 0001:00068328       __raise_securityfailure    0000000180069328 f   MSVCRT:gs_report.obj
 0001:0006835c       __report_gsfailure         000000018006935c f   MSVCRT:gs_report.obj
 0001:00068430       __report_rangecheckfailure 0000000180069430 f   MSVCRT:gs_report.obj
 0001:00068444       __report_securityfailure   0000000180069444 f   MSVCRT:gs_report.obj
 0001:000684e0       __report_securityfailureEx 00000001800694e0 f   MSVCRT:gs_report.obj
 0001:000686d4       ??$__crt_fast_decode_pointer@PEAP6AXXZ@@YAPEAP6AXXZQEAP6AXXZ@Z 00000001800696d4 f i MSVCRT:utility.obj
 0001:000686ec       ??$__crt_fast_encode_pointer@PEAP6AXXZ@@YAPEAP6AXXZQEAP6AXXZ@Z 00000001800696ec f i MSVCRT:utility.obj
 0001:0006870c       ?__crt_rotate_pointer_value@@YA_K_KH@Z 000000018006970c f i MSVCRT:utility.obj
 0001:00068718       ?configure_argv@__scrt_narrow_argv_policy@@SAHXZ 0000000180069718 f i MSVCRT:utility.obj
 0001:000687a8       NtCurrentTeb               00000001800697a8 f i MSVCRT:utility.obj
 0001:000687b4       __scrt_acquire_startup_lock 00000001800697b4 f   MSVCRT:utility.obj
 0001:000687f0       __scrt_dllmain_after_initialize_c 00000001800697f0 f   MSVCRT:utility.obj
 0001:00068824       __scrt_dllmain_before_initialize_c 0000000180069824 f   MSVCRT:utility.obj
 0001:0006883c       __scrt_dllmain_crt_thread_attach 000000018006983c f   MSVCRT:utility.obj
 0001:00068864       __scrt_dllmain_crt_thread_detach 0000000180069864 f   MSVCRT:utility.obj
 0001:0006887c       __scrt_dllmain_exception_filter 000000018006987c f   MSVCRT:utility.obj
 0001:000688e0       __scrt_dllmain_uninitialize_c 00000001800698e0 f   MSVCRT:utility.obj
 0001:00068910       __scrt_dllmain_uninitialize_critical 0000000180069910 f   MSVCRT:utility.obj
 0001:00068924       __scrt_initialize_crt      0000000180069924 f   MSVCRT:utility.obj
 0001:00068970       __scrt_initialize_onexit_tables 0000000180069970 f   MSVCRT:utility.obj
 0001:00068a3c       __scrt_is_nonwritable_in_current_image 0000000180069a3c f   MSVCRT:utility.obj
 0001:00068ad8       __scrt_release_startup_lock 0000000180069ad8 f   MSVCRT:utility.obj
 0001:00068afc       __scrt_uninitialize_crt    0000000180069afc f   MSVCRT:utility.obj
 0001:00068b28       _onexit                    0000000180069b28 f   MSVCRT:utility.obj
 0001:00068b78       at_quick_exit              0000000180069b78 f   MSVCRT:utility.obj
 0001:00068bb0       atexit                     0000000180069bb0 f   MSVCRT:utility.obj
 0001:00068bc8       __security_init_cookie     0000000180069bc8 f   MSVCRT:gs_support.obj
 0001:00068c74       DllMain                    0000000180069c74 f   MSVCRT:dll_dllmain_stub.obj
 0001:00068c98       ?__scrt_initialize_type_info@@YAXXZ 0000000180069c98 f   MSVCRT:tncleanup.obj
 0001:00068ca8       ?__scrt_uninitialize_type_info@@YAXXZ 0000000180069ca8 f   MSVCRT:tncleanup.obj
 0001:00068cb4       __local_stdio_scanf_options 0000000180069cb4 f i MSVCRT:default_local_stdio_options.obj
 0001:00068cbc       __scrt_initialize_default_local_stdio_options 0000000180069cbc f   MSVCRT:default_local_stdio_options.obj
 0001:00068cd8       __scrt_get_dyn_tls_init_callback 0000000180069cd8 f   MSVCRT:dyn_tls_init.obj
 0001:00068ce0       __crt_debugger_hook        0000000180069ce0 f   MSVCRT:utility_desktop.obj
 0001:00068ce8       __scrt_fastfail            0000000180069ce8 f   MSVCRT:utility_desktop.obj
 0001:00068e30       __scrt_get_show_window_mode 0000000180069e30 f   MSVCRT:utility_desktop.obj
 0001:00068e6c       __scrt_initialize_winrt    0000000180069e6c f   MSVCRT:utility_desktop.obj
 0001:00068e70       __scrt_is_managed_app      0000000180069e70 f   MSVCRT:utility_desktop.obj
 0001:00068ec4       __scrt_set_unhandled_exception_filter 0000000180069ec4 f   MSVCRT:utility_desktop.obj
 0001:00068ed4       __scrt_unhandled_exception_filter 0000000180069ed4 f   MSVCRT:utility_desktop.obj
 0001:00068f0c       _RTC_Initialize            0000000180069f0c f   MSVCRT:_initsect_.obj
 0001:00068f58       _RTC_Terminate             0000000180069f58 f   MSVCRT:_initsect_.obj
 0001:00068fa4       _guard_check_icall         0000000180069fa4 f i MSVCRT:checkcfg.obj
 0001:00068fac       __isa_available_init       0000000180069fac f   MSVCRT:_cpu_disp_.obj
 0001:00069174       _get_startup_argv_mode     000000018006a174 f   MSVCRT:argv_mode.obj
 0001:0006917c       __scrt_is_ucrt_dll_in_use  000000018006a17c f   MSVCRT:ucrt_detection.obj
 0001:00069188       _guard_check_icall_nop     000000018006a188 f i MSVCRT:guard_support.obj
 0001:0006918c       _guard_icall_checks_enforced 000000018006a18c f i MSVCRT:guard_support.obj
 0001:000691b0       RtlCaptureContext          000000018006a1b0 f   kernel32:KERNEL32.dll
 0001:000691b6       RtlLookupFunctionEntry     000000018006a1b6 f   kernel32:KERNEL32.dll
 0001:000691bc       RtlVirtualUnwind           000000018006a1bc f   kernel32:KERNEL32.dll
 0001:000691c2       UnhandledExceptionFilter   000000018006a1c2 f   kernel32:KERNEL32.dll
 0001:000691c8       SetUnhandledExceptionFilter 000000018006a1c8 f   kernel32:KERNEL32.dll
 0001:000691ce       GetCurrentProcess          000000018006a1ce f   kernel32:KERNEL32.dll
 0001:000691d4       TerminateProcess           000000018006a1d4 f   kernel32:KERNEL32.dll
 0001:000691da       IsProcessorFeaturePresent  000000018006a1da f   kernel32:KERNEL32.dll
 0001:000691e0       QueryPerformanceCounter    000000018006a1e0 f   kernel32:KERNEL32.dll
 0001:000691e6       GetCurrentProcessId        000000018006a1e6 f   kernel32:KERNEL32.dll
 0001:000691ec       GetCurrentThreadId         000000018006a1ec f   kernel32:KERNEL32.dll
 0001:000691f2       GetSystemTimeAsFileTime    000000018006a1f2 f   kernel32:KERNEL32.dll
 0001:000691f8       DisableThreadLibraryCalls  000000018006a1f8 f   kernel32:KERNEL32.dll
 0001:000691fe       InitializeSListHead        000000018006a1fe f   kernel32:KERNEL32.dll
 0001:00069204       IsDebuggerPresent          000000018006a204 f   kernel32:KERNEL32.dll
 0001:0006920a       GetStartupInfoW            000000018006a20a f   kernel32:KERNEL32.dll
 0001:00069210       GetModuleHandleW           000000018006a210 f   kernel32:KERNEL32.dll
 0001:00069216       memset                     000000018006a216 f   vcruntime:VCRUNTIME140.dll
 0001:0006921c       memcpy                     000000018006a21c f   vcruntime:VCRUNTIME140.dll
 0001:00069222       __C_specific_handler       000000018006a222 f   vcruntime:VCRUNTIME140.dll
 0001:00069228       __std_type_info_destroy_list 000000018006a228 f   vcruntime:VCRUNTIME140.dll
 0001:0006922e       strcmp                     000000018006a22e f   ucrt:api-ms-win-crt-string-l1-1-0.dll
 0001:00069234       __stdio_common_vsprintf    000000018006a234 f   ucrt:api-ms-win-crt-stdio-l1-1-0.dll
 0001:0006923a       free                       000000018006a23a f   ucrt:api-ms-win-crt-heap-l1-1-0.dll
 0001:00069240       malloc                     000000018006a240 f   ucrt:api-ms-win-crt-heap-l1-1-0.dll
 0001:00069246       _initterm                  000000018006a246 f   ucrt:api-ms-win-crt-runtime-l1-1-0.dll
 0001:0006924c       _initterm_e                000000018006a24c f   ucrt:api-ms-win-crt-runtime-l1-1-0.dll
 0001:00069252       _seh_filter_dll            000000018006a252 f   ucrt:api-ms-win-crt-runtime-l1-1-0.dll
 0001:00069258       _configure_narrow_argv     000000018006a258 f   ucrt:api-ms-win-crt-runtime-l1-1-0.dll
 0001:0006925e       _initialize_narrow_environment 000000018006a25e f   ucrt:api-ms-win-crt-runtime-l1-1-0.dll
 0001:00069264       _initialize_onexit_table   000000018006a264 f   ucrt:api-ms-win-crt-runtime-l1-1-0.dll
 0001:0006926a       _register_onexit_function  000000018006a26a f   ucrt:api-ms-win-crt-runtime-l1-1-0.dll
 0001:00069270       _execute_onexit_table      000000018006a270 f   ucrt:api-ms-win-crt-runtime-l1-1-0.dll
 0001:00069276       _crt_atexit                000000018006a276 f   ucrt:api-ms-win-crt-runtime-l1-1-0.dll
 0001:0006927c       _crt_at_quick_exit         000000018006a27c f   ucrt:api-ms-win-crt-runtime-l1-1-0.dll
 0001:00069282       _cexit                     000000018006a282 f   ucrt:api-ms-win-crt-runtime-l1-1-0.dll
 0001:00069288       terminate                  000000018006a288 f   ucrt:api-ms-win-crt-runtime-l1-1-0.dll
 0001:00069290       __scrt_stub_for_acrt_initialize 000000018006a290 f   MSVCRT:ucrt_stubs.obj
 0001:00069290       __acrt_initialize          000000018006a290 f   MSVCRT:ucrt_stubs.obj
 0001:00069290       __vcrt_initialize          000000018006a290 f   MSVCRT:ucrt_stubs.obj
 0001:00069294       __acrt_thread_attach       000000018006a294 f   MSVCRT:ucrt_stubs.obj
 0001:00069294       __scrt_stub_for_acrt_thread_attach 000000018006a294 f   MSVCRT:ucrt_stubs.obj
 0001:00069294       __vcrt_thread_attach       000000018006a294 f   MSVCRT:ucrt_stubs.obj
 0001:00069298       __vcrt_thread_detach       000000018006a298 f   MSVCRT:ucrt_stubs.obj
 0001:00069298       __scrt_stub_for_acrt_thread_detach 000000018006a298 f   MSVCRT:ucrt_stubs.obj
 0001:00069298       __acrt_thread_detach       000000018006a298 f   MSVCRT:ucrt_stubs.obj
 0001:0006929c       __vcrt_uninitialize        000000018006a29c f   MSVCRT:ucrt_stubs.obj
 0001:0006929c       __scrt_stub_for_acrt_uninitialize 000000018006a29c f   MSVCRT:ucrt_stubs.obj
 0001:0006929c       __acrt_uninitialize        000000018006a29c f   MSVCRT:ucrt_stubs.obj
 0001:000692a0       __acrt_uninitialize_critical 000000018006a2a0 f   MSVCRT:ucrt_stubs.obj
 0001:000692a0       __scrt_stub_for_acrt_uninitialize_critical 000000018006a2a0 f   MSVCRT:ucrt_stubs.obj
 0001:000692a0       __vcrt_uninitialize_critical 000000018006a2a0 f   MSVCRT:ucrt_stubs.obj
 0001:000692a4       _is_c_termination_complete 000000018006a2a4 f   MSVCRT:ucrt_stubs.obj
 0001:000692a4       __scrt_stub_for_is_c_termination_complete 000000018006a2a4 f   MSVCRT:ucrt_stubs.obj
 0001:000692c0       _guard_dispatch_icall_nop  000000018006a2c0 f   MSVCRT:_guard_dispatch_.obj
 0002:00000000       __imp_RtlCaptureContext    000000018006b000     kernel32:KERNEL32.dll
 0002:00000008       __imp_RtlLookupFunctionEntry 000000018006b008     kernel32:KERNEL32.dll
 0002:00000010       __imp_RtlVirtualUnwind     000000018006b010     kernel32:KERNEL32.dll
 0002:00000018       __imp_UnhandledExceptionFilter 000000018006b018     kernel32:KERNEL32.dll
 0002:00000020       __imp_SetUnhandledExceptionFilter 000000018006b020     kernel32:KERNEL32.dll
 0002:00000028       __imp_GetCurrentProcess    000000018006b028     kernel32:KERNEL32.dll
 0002:00000030       __imp_TerminateProcess     000000018006b030     kernel32:KERNEL32.dll
 0002:00000038       __imp_IsProcessorFeaturePresent 000000018006b038     kernel32:KERNEL32.dll
 0002:00000040       __imp_QueryPerformanceCounter 000000018006b040     kernel32:KERNEL32.dll
 0002:00000048       __imp_GetCurrentProcessId  000000018006b048     kernel32:KERNEL32.dll
 0002:00000050       __imp_GetCurrentThreadId   000000018006b050     kernel32:KERNEL32.dll
 0002:00000058       __imp_GetSystemTimeAsFileTime 000000018006b058     kernel32:KERNEL32.dll
 0002:00000060       __imp_DisableThreadLibraryCalls 000000018006b060     kernel32:KERNEL32.dll
 0002:00000068       __imp_InitializeSListHead  000000018006b068     kernel32:KERNEL32.dll
 0002:00000070       __imp_IsDebuggerPresent    000000018006b070     kernel32:KERNEL32.dll
 0002:00000078       __imp_GetModuleHandleW     000000018006b078     kernel32:KERNEL32.dll
 0002:00000080       __imp_GetStartupInfoW      000000018006b080     kernel32:KERNEL32.dll
 0002:00000088       \177KERNEL32_NULL_THUNK_DATA 000000018006b088     kernel32:KERNEL32.dll
 0002:00000090       __imp_memset               000000018006b090     vcruntime:VCRUNTIME140.dll
 0002:00000098       __imp___std_type_info_destroy_list 000000018006b098     vcruntime:VCRUNTIME140.dll
 0002:000000a0       __imp_memcpy               000000018006b0a0     vcruntime:VCRUNTIME140.dll
 0002:000000a8       __imp___C_specific_handler 000000018006b0a8     vcruntime:VCRUNTIME140.dll
 0002:000000b0       \177VCRUNTIME140_NULL_THUNK_DATA 000000018006b0b0     vcruntime:VCRUNTIME140.dll
 0002:000000b8       __imp_free                 000000018006b0b8     ucrt:api-ms-win-crt-heap-l1-1-0.dll
 0002:000000c0       __imp_malloc               000000018006b0c0     ucrt:api-ms-win-crt-heap-l1-1-0.dll
 0002:000000c8       \177api-ms-win-crt-heap-l1-1-0_NULL_THUNK_DATA 000000018006b0c8     ucrt:api-ms-win-crt-heap-l1-1-0.dll
 0002:000000d0       __imp__initterm_e          000000018006b0d0     ucrt:api-ms-win-crt-runtime-l1-1-0.dll
 0002:000000d8       __imp__seh_filter_dll      000000018006b0d8     ucrt:api-ms-win-crt-runtime-l1-1-0.dll
 0002:000000e0       __imp__configure_narrow_argv 000000018006b0e0     ucrt:api-ms-win-crt-runtime-l1-1-0.dll
 0002:000000e8       __imp__initialize_narrow_environment 000000018006b0e8     ucrt:api-ms-win-crt-runtime-l1-1-0.dll
 0002:000000f0       __imp__initterm            000000018006b0f0     ucrt:api-ms-win-crt-runtime-l1-1-0.dll
 0002:000000f8       __imp__register_onexit_function 000000018006b0f8     ucrt:api-ms-win-crt-runtime-l1-1-0.dll
 0002:00000100       __imp__execute_onexit_table 000000018006b100     ucrt:api-ms-win-crt-runtime-l1-1-0.dll
 0002:00000108       __imp__crt_atexit          000000018006b108     ucrt:api-ms-win-crt-runtime-l1-1-0.dll
 0002:00000110       __imp__crt_at_quick_exit   000000018006b110     ucrt:api-ms-win-crt-runtime-l1-1-0.dll
 0002:00000118       __imp__cexit               000000018006b118     ucrt:api-ms-win-crt-runtime-l1-1-0.dll
 0002:00000120       __imp_terminate            000000018006b120     ucrt:api-ms-win-crt-runtime-l1-1-0.dll
 0002:00000128       __imp__initialize_onexit_table 000000018006b128     ucrt:api-ms-win-crt-runtime-l1-1-0.dll
 0002:00000130       \177api-ms-win-crt-runtime-l1-1-0_NULL_THUNK_DATA 000000018006b130     ucrt:api-ms-win-crt-runtime-l1-1-0.dll
 0002:00000138       __imp___stdio_common_vsprintf 000000018006b138     ucrt:api-ms-win-crt-stdio-l1-1-0.dll
 0002:00000140       \177api-ms-win-crt-stdio-l1-1-0_NULL_THUNK_DATA 000000018006b140     ucrt:api-ms-win-crt-stdio-l1-1-0.dll
 0002:00000148       __imp_strcmp               000000018006b148     ucrt:api-ms-win-crt-string-l1-1-0.dll
 0002:00000150       \177api-ms-win-crt-string-l1-1-0_NULL_THUNK_DATA 000000018006b150     ucrt:api-ms-win-crt-string-l1-1-0.dll
 0002:00000158       __imp_mexErrMsgTxt         000000018006b158     libmex:libmex.dll
 0002:00000160       __imp_mexWarnMsgTxt        000000018006b160     libmex:libmex.dll
 0002:00000168       __imp_mexIsLocked          000000018006b168     libmex:libmex.dll
 0002:00000170       __imp_mexUnlock            000000018006b170     libmex:libmex.dll
 0002:00000178       __imp_mexLock              000000018006b178     libmex:libmex.dll
 0002:00000180       __imp_mexCallMATLABWithObject 000000018006b180     libmex:libmex.dll
 0002:00000188       __imp_mexMakeArrayPersistent 000000018006b188     libmex:libmex.dll
 0002:00000190       \177libmex_NULL_THUNK_DATA 000000018006b190     libmex:libmex.dll
 0002:00000198       __imp_muDoubleScalarAbs    000000018006b198     libmwmathutil:libmwmathutil.dll
 0002:000001a0       \177libmwmathutil_NULL_THUNK_DATA 000000018006b1a0     libmwmathutil:libmwmathutil.dll
 0002:000001a8       __imp_mxGetN               000000018006b1a8     libmx:libmx.dll
 0002:000001b0       __imp_mxIsComplex          000000018006b1b0     libmx:libmx.dll
 0002:000001b8       __imp_mxIsNumeric          000000018006b1b8     libmx:libmx.dll
 0002:000001c0       __imp_mxGetClassID         000000018006b1c0     libmx:libmx.dll
 0002:000001c8       __imp_mxGetM               000000018006b1c8     libmx:libmx.dll
 0002:000001d0       __imp_mxCalloc             000000018006b1d0     libmx:libmx.dll
 0002:000001d8       __imp_mxCreateStructArray_730 000000018006b1d8     libmx:libmx.dll
 0002:000001e0       __imp_mxCreateStructMatrix_730 000000018006b1e0     libmx:libmx.dll
 0002:000001e8       __imp_mxCreateCellArray_730 000000018006b1e8     libmx:libmx.dll
 0002:000001f0       __imp_mxCreateCellMatrix_730 000000018006b1f0     libmx:libmx.dll
 0002:000001f8       __imp_mxCreateString       000000018006b1f8     libmx:libmx.dll
 0002:00000200       __imp_mxCreateDoubleScalar 000000018006b200     libmx:libmx.dll
 0002:00000208       __imp_mxSetField_730       000000018006b208     libmx:libmx.dll
 0002:00000210       __imp_mxDuplicateArray     000000018006b210     libmx:libmx.dll
 0002:00000218       __imp_mxGetString_730      000000018006b218     libmx:libmx.dll
 0002:00000220       __imp_mxCreateDoubleMatrix_730 000000018006b220     libmx:libmx.dll
 0002:00000228       __imp_mxDestroyArray       000000018006b228     libmx:libmx.dll
 0002:00000230       __imp_mxGetScalar          000000018006b230     libmx:libmx.dll
 0002:00000238       __imp_mxGetPr              000000018006b238     libmx:libmx.dll
 0002:00000240       __imp_mxIsChar             000000018006b240     libmx:libmx.dll
 0002:00000248       \177libmx_NULL_THUNK_DATA  000000018006b248     libmx:libmx.dll
 0002:00000250       __imp_utMalloc             000000018006b250     libut:libut.dll
 0002:00000258       __imp_utFree               000000018006b258     libut:libut.dll
 0002:00000260       \177libut_NULL_THUNK_DATA  000000018006b260     libut:libut.dll
 0002:00000268       __imp_sf_eml_array_bounds_check 000000018006b268     sf_runtime:sf_runtime.dll
 0002:00000270       __imp_sf_integer_check     000000018006b270     sf_runtime:sf_runtime.dll
 0002:00000278       __imp_eml_debug_line_call  000000018006b278     sf_runtime:sf_runtime.dll
 0002:00000280       __imp_cv_eml_init_fcn      000000018006b280     sf_runtime:sf_runtime.dll
 0002:00000288       __imp_sf_debug_unset_instance_data_value_ptr 000000018006b288     sf_runtime:sf_runtime.dll
 0002:00000290       __imp_sf_debug_cv_init_relationalop 000000018006b290     sf_runtime:sf_runtime.dll
 0002:00000298       __imp_sf_get_ChartInfoStruct_CodeGen 000000018006b298     sf_runtime:sf_runtime.dll
 0002:000002a0       __imp_sf_get_hasSeparateUpdateOutputs 000000018006b2a0     sf_runtime:sf_runtime.dll
 0002:000002a8       __imp_ssGetOutputPortSignal_wrapper 000000018006b2a8     sf_runtime:sf_runtime.dll
 0002:000002b0       __imp_call_sf_machine_global_method_dispatcher 000000018006b2b0     sf_runtime:sf_runtime.dll
 0002:000002b8       __imp_getRuntimeInstanceInfoAsVoid 000000018006b2b8     sf_runtime:sf_runtime.dll
 0002:000002c0       __imp_sf_mex_error_direct_call 000000018006b2c0     sf_runtime:sf_runtime.dll
 0002:000002c8       __imp_sf_clear_error_manager_info 000000018006b2c8     sf_runtime:sf_runtime.dll
 0002:000002d0       __imp_sf_debug_create_debug_instance_struct 000000018006b2d0     sf_runtime:sf_runtime.dll
 0002:000002d8       __imp_sf_debug_terminate   000000018006b2d8     sf_runtime:sf_runtime.dll
 0002:000002e0       __imp_sf_debug_api         000000018006b2e0     sf_runtime:sf_runtime.dll
 0002:000002e8       __imp_sf_debug_read_before_write_error 000000018006b2e8     sf_runtime:sf_runtime.dll
 0002:000002f0       __imp_sf_debug_cv_init_state 000000018006b2f0     sf_runtime:sf_runtime.dll
 0002:000002f8       __imp_sf_debug_cv_init_chart 000000018006b2f8     sf_runtime:sf_runtime.dll
 0002:00000300       __imp_sf_debug_cv_init_trans 000000018006b300     sf_runtime:sf_runtime.dll
 0002:00000308       __imp_sf_debug_data_range_wrapper 000000018006b308     sf_runtime:sf_runtime.dll
 0002:00000310       __imp_sf_mex_import_named  000000018006b310     sf_runtime:sf_runtime.dll
 0002:00000318       __imp_sf_debug_set_chart_state_substate_count 000000018006b318     sf_runtime:sf_runtime.dll
 0002:00000320       __imp_sf_debug_set_chart_substate_index 000000018006b320     sf_runtime:sf_runtime.dll
 0002:00000328       __imp_sf_debug_set_chart_substate_count 000000018006b328     sf_runtime:sf_runtime.dll
 0002:00000330       __imp_sf_debug_set_chart_decomposition 000000018006b330     sf_runtime:sf_runtime.dll
 0002:00000338       __imp_sf_debug_set_chart_state_info 000000018006b338     sf_runtime:sf_runtime.dll
 0002:00000340       __imp_sf_debug_set_chart_event_thresholds 000000018006b340     sf_runtime:sf_runtime.dll
 0002:00000348       __imp_sf_debug_set_chart_disable_implicit_casting 000000018006b348     sf_runtime:sf_runtime.dll
 0002:00000350       __imp_sf_debug_set_instance_data_value_ptr 000000018006b350     sf_runtime:sf_runtime.dll
 0002:00000358       __imp_sf_debug_symbol_scope_add_eml_importable 000000018006b358     sf_runtime:sf_runtime.dll
 0002:00000360       __imp_sf_debug_symbol_scope_pop 000000018006b360     sf_runtime:sf_runtime.dll
 0002:00000368       __imp_sf_debug_symbol_scope_push_eml 000000018006b368     sf_runtime:sf_runtime.dll
 0002:00000370       __imp_sf_debug_symbol_scope_push 000000018006b370     sf_runtime:sf_runtime.dll
 0002:00000378       __imp_sf_debug_set_chart_data_compiled_props 000000018006b378     sf_runtime:sf_runtime.dll
 0002:00000380       __imp_sf_debug_set_chart_data_props 000000018006b380     sf_runtime:sf_runtime.dll
 0002:00000388       __imp_sf_debug_animate     000000018006b388     sf_runtime:sf_runtime.dll
 0002:00000390       __imp_sf_debug_set_animation 000000018006b390     sf_runtime:sf_runtime.dll
 0002:00000398       __imp_sf_debug_get_animation 000000018006b398     sf_runtime:sf_runtime.dll
 0002:000003a0       __imp_sf_debug_set_honor_breakpoints 000000018006b3a0     sf_runtime:sf_runtime.dll
 0002:000003a8       __imp_sf_debug_check_for_state_inconsistency 000000018006b3a8     sf_runtime:sf_runtime.dll
 0002:000003b0       __imp_sf_debug_reset_current_state_configuration 000000018006b3b0     sf_runtime:sf_runtime.dll
 0002:000003b8       __imp_cv_eml_init_relational 000000018006b3b8     sf_runtime:sf_runtime.dll
 0002:000003c0       __imp_cv_eml_init_mcdc     000000018006b3c0     sf_runtime:sf_runtime.dll
 0002:000003c8       __imp_cv_eml_init_if       000000018006b3c8     sf_runtime:sf_runtime.dll
 0002:000003d0       __imp_sf_get_output_port_reusable 000000018006b3d0     sf_runtime:sf_runtime.dll
 0002:000003d8       __imp_sf_debug_set_chart_state_substate_index 000000018006b3d8     sf_runtime:sf_runtime.dll
 0002:000003e0       __imp_sf_mex_get_sfun_param 000000018006b3e0     sf_runtime:sf_runtime.dll
 0002:000003e8       __imp_cv_eml_init_script   000000018006b3e8     sf_runtime:sf_runtime.dll
 0002:000003f0       __imp_cv_eval_relational   000000018006b3f0     sf_runtime:sf_runtime.dll
 0002:000003f8       __imp_ssGetInputPortSignal_wrapper 000000018006b3f8     sf_runtime:sf_runtime.dll
 0002:00000400       __imp_ssGetDWork_wrapper   000000018006b400     sf_runtime:sf_runtime.dll
 0002:00000408       __imp_sf_mex_duplicatearraysafe 000000018006b408     sf_runtime:sf_runtime.dll
 0002:00000410       __imp_sf_mex_decode_encoded_mx_struct_array 000000018006b410     sf_runtime:sf_runtime.dll
 0002:00000418       __imp_sf_mex_import        000000018006b418     sf_runtime:sf_runtime.dll
 0002:00000420       __imp_sf_mex_destroy       000000018006b420     sf_runtime:sf_runtime.dll
 0002:00000428       __imp_sf_mex_dup           000000018006b428     sf_runtime:sf_runtime.dll
 0002:00000430       __imp_sf_mex_assign        000000018006b430     sf_runtime:sf_runtime.dll
 0002:00000438       __imp_sf_mex_getcell       000000018006b438     sf_runtime:sf_runtime.dll
 0002:00000440       __imp_sf_mex_setcell       000000018006b440     sf_runtime:sf_runtime.dll
 0002:00000448       __imp_sf_mex_createcellmatrix 000000018006b448     sf_runtime:sf_runtime.dll
 0002:00000450       __imp_sf_mex_create        000000018006b450     sf_runtime:sf_runtime.dll
 0002:00000458       __imp_sf_mex_error_message 000000018006b458     sf_runtime:sf_runtime.dll
 0002:00000460       __imp_ssSetBlockIsPurelyCombinatorial_wrapper 000000018006b460     sf_runtime:sf_runtime.dll
 0002:00000468       __imp_sf_register_codegen_names_for_scoped_functions_defined_by_chart 000000018006b468     sf_runtime:sf_runtime.dll
 0002:00000470       __imp_sf_set_chart_accesses_machine_info 000000018006b470     sf_runtime:sf_runtime.dll
 0002:00000478       __imp_sf_is_first_init_cond 000000018006b478     sf_runtime:sf_runtime.dll
 0002:00000480       __imp_sf_get_time          000000018006b480     sf_runtime:sf_runtime.dll
 0002:00000488       __imp_sf_set_encoded_dwork_info 000000018006b488     sf_runtime:sf_runtime.dll
 0002:00000490       __imp_sf_get_dwork_info_from_mat_file 000000018006b490     sf_runtime:sf_runtime.dll
 0002:00000498       __imp_sf_set_rtw_dwork_info 000000018006b498     sf_runtime:sf_runtime.dll
 0002:000004a0       __imp_sf_clear_rtw_identifier 000000018006b4a0     sf_runtime:sf_runtime.dll
 0002:000004a8       __imp_sim_mode_is_modelref_sim 000000018006b4a8     sf_runtime:sf_runtime.dll
 0002:000004b0       __imp_cv_eml_eval          000000018006b4b0     sf_runtime:sf_runtime.dll
 0002:000004b8       __imp_cv_eval_point        000000018006b4b8     sf_runtime:sf_runtime.dll
 0002:000004c0       __imp_sim_mode_is_external 000000018006b4c0     sf_runtime:sf_runtime.dll
 0002:000004c8       __imp_sim_mode_is_rtw_gen  000000018006b4c8     sf_runtime:sf_runtime.dll
 0002:000004d0       __imp_sf_mark_chart_expressionable_inputs 000000018006b4d0     sf_runtime:sf_runtime.dll
 0002:000004d8       __imp_sf_mark_chart_reusable_outputs 000000018006b4d8     sf_runtime:sf_runtime.dll
 0002:000004e0       __imp_sf_is_chart_inlinable 000000018006b4e0     sf_runtime:sf_runtime.dll
 0002:000004e8       __imp_sf_update_buildInfo  000000018006b4e8     sf_runtime:sf_runtime.dll
 0002:000004f0       __imp_sf_rtw_info_uint_prop 000000018006b4f0     sf_runtime:sf_runtime.dll
 0002:000004f8       __imp_sf_get_chart_instance_ptr 000000018006b4f8     sf_runtime:sf_runtime.dll
 0002:00000500       __imp_sfrtGetEmlrtCtx      000000018006b500     sf_runtime:sf_runtime.dll
 0002:00000508       __imp_sf_free_ChartRunTimeInfo 000000018006b508     sf_runtime:sf_runtime.dll
 0002:00000510       __imp_sf_init_ChartRunTimeInfo 000000018006b510     sf_runtime:sf_runtime.dll
 0002:00000518       __imp_sf_debug_set_machine_data_thresholds 000000018006b518     sf_runtime:sf_runtime.dll
 0002:00000520       __imp_sf_debug_set_machine_event_thresholds 000000018006b520     sf_runtime:sf_runtime.dll
 0002:00000528       __imp_sf_debug_initialize_machine 000000018006b528     sf_runtime:sf_runtime.dll
 0002:00000530       __imp_sf_debug_call        000000018006b530     sf_runtime:sf_runtime.dll
 0002:00000538       __imp_sf_debug_initialize_chart 000000018006b538     sf_runtime:sf_runtime.dll
 0002:00000540       __imp_callMdlMethodAndReportError 000000018006b540     sf_runtime:sf_runtime.dll
 0002:00000548       __imp_sf_load_rtw_optimization_info 000000018006b548     sf_runtime:sf_runtime.dll
 0002:00000550       \177sf_runtime_NULL_THUNK_DATA 000000018006b550     sf_runtime:sf_runtime.dll
 0002:00000558       __guard_check_icall_fptr   000000018006b558     MSVCRT:guard_support.obj
 0002:00000560       __guard_dispatch_icall_fptr 000000018006b560     MSVCRT:guard_support.obj
 0002:00000568       __xc_a                     000000018006b568     MSVCRT:initializers.obj
 0002:00000570       __xc_z                     000000018006b570     MSVCRT:initializers.obj
 0002:00000578       __xi_a                     000000018006b578     MSVCRT:initializers.obj
 0002:00000580       __xi_z                     000000018006b580     MSVCRT:initializers.obj
 0002:00000588       __xp_a                     000000018006b588     MSVCRT:initializers.obj
 0002:00000590       __xp_z                     000000018006b590     MSVCRT:initializers.obj
 0002:00000598       __xt_a                     000000018006b598     MSVCRT:initializers.obj
 0002:000005a0       __xt_z                     000000018006b5a0     MSVCRT:initializers.obj
 0002:000005b0       ??_C@_0BD@BNCDKPGM@get_testpoint_info?$AA@ 000000018006b5b0     modello_2017b_levaRetro_acc_sfun.obj
 0002:000005c8       ??_C@_0BM@CKKPKCFD@modello_2017b_levaRetro_acc?$AA@ 000000018006b5c8     modello_2017b_levaRetro_acc_sfun.obj
 0002:000005e8       ??_C@_0BB@FLJEPEHM@sf_get_check_sum?$AA@ 000000018006b5e8     modello_2017b_levaRetro_acc_sfun.obj
 0002:00000600       ??_C@_07MHDNFCJE@machine?$AA@ 000000018006b600     modello_2017b_levaRetro_acc_sfun.obj
 0002:00000608       ??_C@_05PGKDIPIO@chart?$AA@ 000000018006b608     modello_2017b_levaRetro_acc_sfun.obj
 0002:00000610       ??_C@_06JJLAMBGK@target?$AA@ 000000018006b610     modello_2017b_levaRetro_acc_sfun.obj
 0002:00000618       ??_C@_0BJ@FMGCKEMJ@get_autoinheritance_info?$AA@ 000000018006b618     modello_2017b_levaRetro_acc_sfun.obj
 0002:00000638       ??_C@_0BH@DNEOBNIL@INC8xUk6zxwBmWTkYHlCDD?$AA@ 000000018006b638     modello_2017b_levaRetro_acc_sfun.obj
 0002:00000650       ??_C@_0BH@NIGBCPPE@Hlx2HsZKwEzOxtBXgP4BDF?$AA@ 000000018006b650     modello_2017b_levaRetro_acc_sfun.obj
 0002:00000668       ??_C@_0BH@ILJDHLCD@LAh3ABNNIFQlrx7v2rVruH?$AA@ 000000018006b668     modello_2017b_levaRetro_acc_sfun.obj
 0002:00000680       ??_C@_0BH@ILBFGEHN@WLZY3NHFFqg9MypKPWZ62G?$AA@ 000000018006b680     modello_2017b_levaRetro_acc_sfun.obj
 0002:00000698       ??_C@_0BH@IOHCBMJB@1nIrZttZEskfxWHOTx2B0F?$AA@ 000000018006b698     modello_2017b_levaRetro_acc_sfun.obj
 0002:000006b0       ??_C@_0BG@EMKMHKDA@b5XaH9MM9W9G9tV4BmBUG?$AA@ 000000018006b6b0     modello_2017b_levaRetro_acc_sfun.obj
 0002:000006c8       ??_C@_0BH@FKLDJIID@QbdMYaFhldBRrzYS02wz5G?$AA@ 000000018006b6c8     modello_2017b_levaRetro_acc_sfun.obj
 0002:000006e0       ??_C@_0CA@EADCEDHE@get_eml_resolved_functions_info?$AA@ 000000018006b6e0     modello_2017b_levaRetro_acc_sfun.obj
 0002:00000700       ??_C@_0BH@KPBBAGKF@smnQtd9lNWbnLFQrc523Q2?$AA@ 000000018006b700     modello_2017b_levaRetro_acc_sfun.obj
 0002:00000718       ??_C@_0BI@PIGBMEGJ@s1DHf08QMVJO4dKCRO8FlSB?$AA@ 000000018006b718     modello_2017b_levaRetro_acc_sfun.obj
 0002:00000730       ??_C@_0BI@LFDFPLKB@sQEptMnNBUPwHCw1eYoyvuF?$AA@ 000000018006b730     modello_2017b_levaRetro_acc_sfun.obj
 0002:00000748       ??_C@_0BH@CNKAHMG@steNKPNSUQf4vQNVObwfHQ?$AA@ 000000018006b748     modello_2017b_levaRetro_acc_sfun.obj
 0002:00000760       ??_C@_0BI@JKMCGJF@samRfI632KlLbs3HElNH3bE?$AA@ 000000018006b760     modello_2017b_levaRetro_acc_sfun.obj
 0002:00000778       ??_C@_0BI@KDHKKKNL@sSM7BGCsF4Knvab9kXArrGB?$AA@ 000000018006b778     modello_2017b_levaRetro_acc_sfun.obj
 0002:00000790       ??_C@_0BH@HFMKAONH@s0WvxjbeSVsD0VsWiAkQHK?$AA@ 000000018006b790     modello_2017b_levaRetro_acc_sfun.obj
 0002:000007a8       ??_C@_0BK@OHOOMENA@get_third_party_uses_info?$AA@ 000000018006b7a8     modello_2017b_levaRetro_acc_sfun.obj
 0002:000007c8       ??_C@_0BG@LBHKCKOM@get_jit_fallback_info?$AA@ 000000018006b7c8     modello_2017b_levaRetro_acc_sfun.obj
 0002:000007e0       ??_C@_0BO@DEKBDHJJ@get_updateBuildInfo_args_info?$AA@ 000000018006b7e0     modello_2017b_levaRetro_acc_sfun.obj
 0002:00000800       ??_C@_04DAKGNGLA@sfun?$AA@ 000000018006b800     modello_2017b_levaRetro_acc_sfun.obj
 0002:00000808       ??_C@_06ODCJABFF@nargin?$AA@ 000000018006b808     c1_modello_2017b_levaRetro_acc.obj
 0002:00000810       ??_C@_07GFKJCDMF@nargout?$AA@ 000000018006b810     c1_modello_2017b_levaRetro_acc.obj
 0002:00000818       ??_C@_0BM@CNOPAJGO@sf_internal_predicateOutput?$AA@ 000000018006b818     c1_modello_2017b_levaRetro_acc.obj
 0002:00000834       ??_C@_01EANLCPLP@y?$AA@    000000018006b834     c1_modello_2017b_levaRetro_acc.obj
 0002:00000838       ??_C@_0M@OIEFOPFL@controlword?$AA@ 000000018006b838     c1_modello_2017b_levaRetro_acc.obj
 0002:00000848       ??_C@_0O@FHBEOBJ@drive_enabled?$AA@ 000000018006b848     c1_modello_2017b_levaRetro_acc.obj
 0002:00000858       ??_C@_0M@MPGMECGD@drive_ready?$AA@ 000000018006b858     c1_modello_2017b_levaRetro_acc.obj
 0002:00000868       ??_C@_0P@HJIFJIGE@fault_detected?$AA@ 000000018006b868     c1_modello_2017b_levaRetro_acc.obj
 0002:00000878       ??_C@_0CJ@MDOODOID@is_active_c1_modello_2017b_levaR@ 000000018006b878     c1_modello_2017b_levaRetro_acc.obj
 0002:000008a8       ??_C@_0CC@PPJILFMK@is_c1_modello_2017b_levaRetro_ac@ 000000018006b8a8     c1_modello_2017b_levaRetro_acc.obj
 0002:000008d0       ??_C@_0BF@FOEMPOPN@is_DS402StateMachine?$AA@ 000000018006b8d0     c1_modello_2017b_levaRetro_acc.obj
 0002:000008e8       ??_C@_0BE@ELHHHOAC@dataWrittenToVector?$AA@ 000000018006b8e8     c1_modello_2017b_levaRetro_acc.obj
 0002:00000900       ??_C@_0BA@LDEDEGOG@nameCaptureInfo?$AA@ 000000018006b900     c1_modello_2017b_levaRetro_acc.obj
 0002:00000910       ??_C@_08DNPJAFPH@checksum?$AA@ 000000018006b910     c1_modello_2017b_levaRetro_acc.obj
 0002:0000091c       ??_C@_06LMJKBNEF@inputs?$AA@ 000000018006b91c     c1_modello_2017b_levaRetro_acc.obj
 0002:00000928       ??_C@_0L@HHPOFMCB@parameters?$AA@ 000000018006b928     c1_modello_2017b_levaRetro_acc.obj
 0002:00000938       ??_C@_07EPCMHIAC@outputs?$AA@ 000000018006b938     c1_modello_2017b_levaRetro_acc.obj
 0002:00000940       ??_C@_06MPPADOBF@locals?$AA@ 000000018006b940     c1_modello_2017b_levaRetro_acc.obj
 0002:00000948       ??_C@_0BA@GNIFLIGG@postCodegenInfo?$AA@ 000000018006b948     c1_modello_2017b_levaRetro_acc.obj
 0002:00000958       ??_C@_04IAGNFIBA@size?$AA@ 000000018006b958     c1_modello_2017b_levaRetro_acc.obj
 0002:00000960       ??_C@_04GPMDFGEJ@type?$AA@ 000000018006b960     c1_modello_2017b_levaRetro_acc.obj
 0002:00000968       ??_C@_0L@EKHILPHI@complexity?$AA@ 000000018006b968     c1_modello_2017b_levaRetro_acc.obj
 0002:00000974       ??_C@_04BHIIPFEC@base?$AA@ 000000018006b974     c1_modello_2017b_levaRetro_acc.obj
 0002:0000097c       ??_C@_05LFJLPLPG@fixpt?$AA@ 000000018006b97c     c1_modello_2017b_levaRetro_acc.obj
 0002:00000988       ??_C@_0BB@IBODCOLK@isFixedPointType?$AA@ 000000018006b988     c1_modello_2017b_levaRetro_acc.obj
 0002:000009a0       ??_C@_0N@FNBJKNNB@fallbackType?$AA@ 000000018006b9a0     c1_modello_2017b_levaRetro_acc.obj
 0002:000009b0       ??_C@_0P@LHIHPNIN@fallbackReason?$AA@ 000000018006b9b0     c1_modello_2017b_levaRetro_acc.obj
 0002:000009c0       ??_C@_0BD@JNJMKOMN@hiddenFallbackType?$AA@ 000000018006b9c0     c1_modello_2017b_levaRetro_acc.obj
 0002:000009d8       ??_C@_0BF@MIPJDBOP@hiddenFallbackReason?$AA@ 000000018006b9d8     c1_modello_2017b_levaRetro_acc.obj
 0002:000009f0       ??_C@_0BD@MBPFBLBL@incompatibleSymbol?$AA@ 000000018006b9f0     c1_modello_2017b_levaRetro_acc.obj
 0002:00000a04       ??_C@_05MMFAAGKE@early?$AA@ 000000018006ba04     c1_modello_2017b_levaRetro_acc.obj
 0002:00000a10       ??_C@_08MAPLEDDC@ext_mode?$AA@ 000000018006ba10     c1_modello_2017b_levaRetro_acc.obj
 0002:00000a19       ??_C@_00CNPNBAHC@?$AA@     000000018006ba19     c1_modello_2017b_levaRetro_acc.obj
 0002:00000a20       ??_C@_0CB@OGALNHBM@exportedFunctionsUsedByThisChart@ 000000018006ba20     c1_modello_2017b_levaRetro_acc.obj
 0002:00000a48       ??_C@_0BK@PBMGMDMC@exportedFunctionsChecksum?$AA@ 000000018006ba48     c1_modello_2017b_levaRetro_acc.obj
 0002:00000a68       ??_C@_0O@MGONKHEL@chartChecksum?$AA@ 000000018006ba68     c1_modello_2017b_levaRetro_acc.obj
 0002:00000a78       ??_C@_07LLOMCJOI@varInfo?$AA@ 000000018006ba78     c1_modello_2017b_levaRetro_acc.obj
 0002:00000a80       ??_C@_0BFE@PODKMLHC@100?5S1x8?8type?8?0?8srcId?8?0?8name?8?0?8a@ 000000018006ba80     c1_modello_2017b_levaRetro_acc.obj
 0002:00000bd8       ??_C@_0L@CCKNBMHK@statusword?$AA@ 000000018006bbd8     c1_modello_2017b_levaRetro_acc.obj
 0002:00000be8       ??_C@_0N@IPBCHKMI@enable_drive?$AA@ 000000018006bbe8     c1_modello_2017b_levaRetro_acc.obj
 0002:00000bf8       ??_C@_0M@LHFFIMGH@reset_fault?$AA@ 000000018006bbf8     c1_modello_2017b_levaRetro_acc.obj
 0002:00000c08       ??_C@_0L@FHOCOHFJ@quick_stop?$AA@ 000000018006bc08     c1_modello_2017b_levaRetro_acc.obj
 0002:00000c18       ??_C@_0O@PMDHHBP@dworkChecksum?$AA@ 000000018006bc18     c1_modello_2017b_levaRetro_acc.obj
 0002:00000c30       ??_C@_0CIA@PNAKEECK@Code?5generation?5and?5simulation?5t@ 000000018006bc30     c1_modello_2017b_levaRetro_acc.obj
 0002:00000eb0       ??_C@_0BAE@GKDKCHLO@100?5S1x3?8varName?8?0?8path?8?$HL?$HLT?$CCis_a@ 000000018006beb0     c1_modello_2017b_levaRetro_acc.obj
 0002:00000fc0       ??_C@_0BCH@KFHLBFGF@100?5S1x4?8type?8?0?8isSigned?8?0?8wordL@ 000000018006bfc0     c1_modello_2017b_levaRetro_acc.obj
 0002:000010e8       ??_C@_0CE@GCOMPGOI@gatewayCannotBeInlinedMultipleTi@ 000000018006c0e8     c1_modello_2017b_levaRetro_acc.obj
 0002:00001110       ??_C@_09PLDBFLJF@Stateflow?$AA@ 000000018006c110     c1_modello_2017b_levaRetro_acc.obj
 0002:00001120       ??_C@_0BD@LODGPJN@StateflowChartType?$AA@ 000000018006c120     c1_modello_2017b_levaRetro_acc.obj
 0002:00001138       ??_C@_0CO@DMGIOHMB@Could?5not?5allocate?5memory?5for?5ch@ 000000018006c138     c1_modello_2017b_levaRetro_acc.obj
 0002:00001170       ??_C@_0HD@NAENJFFC@Stateflow?5Internal?5Error?3?6Error?5@ 000000018006c170     c1_modello_2017b_levaRetro_acc.obj
 0002:000011e4       __real@3f800000            000000018006c1e4     c1_modello_2017b_levaRetro_acc.obj
 0002:000011e8       __real@3ff0000000000000    000000018006c1e8     c1_modello_2017b_levaRetro_acc.obj
 0002:000011f0       __real@4014000000000000    000000018006c1f0     c1_modello_2017b_levaRetro_acc.obj
 0002:000011f8       __real@401c000000000000    000000018006c1f8     c1_modello_2017b_levaRetro_acc.obj
 0002:00001200       __real@4020000000000000    000000018006c200     c1_modello_2017b_levaRetro_acc.obj
 0002:00001208       __real@4022000000000000    000000018006c208     c1_modello_2017b_levaRetro_acc.obj
 0002:00001210       __real@4024000000000000    000000018006c210     c1_modello_2017b_levaRetro_acc.obj
 0002:00001218       __real@402e000000000000    000000018006c218     c1_modello_2017b_levaRetro_acc.obj
 0002:00001220       __real@4040000000000000    000000018006c220     c1_modello_2017b_levaRetro_acc.obj
 0002:00001228       __real@4040800000000000    000000018006c228     c1_modello_2017b_levaRetro_acc.obj
 0002:00001230       __real@4041800000000000    000000018006c230     c1_modello_2017b_levaRetro_acc.obj
 0002:00001238       __real@4043800000000000    000000018006c238     c1_modello_2017b_levaRetro_acc.obj
 0002:00001240       __real@4044000000000000    000000018006c240     c1_modello_2017b_levaRetro_acc.obj
 0002:00001248       __real@4047800000000000    000000018006c248     c1_modello_2017b_levaRetro_acc.obj
 0002:00001250       __real@4050000000000000    000000018006c250     c1_modello_2017b_levaRetro_acc.obj
 0002:00001258       __real@4058000000000000    000000018006c258     c1_modello_2017b_levaRetro_acc.obj
 0002:00001260       ??_C@_07KMMNMMFF@command?$AA@ 000000018006c260     c2_modello_2017b_levaRetro_acc.obj
 0002:00001268       ??_C@_0N@JKFMJMKA@master_ready?$AA@ 000000018006c268     c2_modello_2017b_levaRetro_acc.obj
 0002:00001278       ??_C@_0CJ@IHEPBLJL@is_active_c2_modello_2017b_levaR@ 000000018006c278     c2_modello_2017b_levaRetro_acc.obj
 0002:000012a8       ??_C@_0CC@LLDJJANC@is_c2_modello_2017b_levaRetro_ac@ 000000018006c2a8     c2_modello_2017b_levaRetro_acc.obj
 0002:000012d0       ??_C@_0OO@MBHJCFAB@100?5S1x5?8type?8?0?8srcId?8?0?8name?8?0?8a@ 000000018006c2d0     c2_modello_2017b_levaRetro_acc.obj
 0002:000013c0       ??_C@_06DJIHEMFI@status?$AA@ 000000018006c3c0     c2_modello_2017b_levaRetro_acc.obj
 0002:000013c8       ??_C@_0O@DJPOAMFC@master_enable?$AA@ 000000018006c3c8     c2_modello_2017b_levaRetro_acc.obj
 0002:000013e0       ??_C@_0MA@CMABNMAH@100?5S1x2?8varName?8?0?8path?8?$HL?$HLT?$CCis_a@ 000000018006c3e0     c2_modello_2017b_levaRetro_acc.obj
 0002:000014a0       ??_C@_0BAB@JLMEAOHJ@100?5S1x3?8type?8?0?8isSigned?8?0?8wordL@ 000000018006c4a0     c2_modello_2017b_levaRetro_acc.obj
 0002:000015b0       ??_C@_0HD@CCOMLAPO@Stateflow?5Internal?5Error?3?6Error?5@ 000000018006c5b0     c2_modello_2017b_levaRetro_acc.obj
 0002:00001628       __real@4000000000000000    000000018006c628     c2_modello_2017b_levaRetro_acc.obj
 0002:00001630       __real@4010000000000000    000000018006c630     c2_modello_2017b_levaRetro_acc.obj
 0002:00001638       ??_C@_0CJ@LLCPPIJD@is_active_c3_modello_2017b_levaR@ 000000018006c638     c3_modello_2017b_levaRetro_acc.obj
 0002:00001668       ??_C@_0CC@IHFJHDNK@is_c3_modello_2017b_levaRetro_ac@ 000000018006c668     c3_modello_2017b_levaRetro_acc.obj
 0002:00001690       ??_C@_0BFE@MBNCMKNP@100?5S1x8?8type?8?0?8srcId?8?0?8name?8?0?8a@ 000000018006c690     c3_modello_2017b_levaRetro_acc.obj
 0002:000017f0       ??_C@_0BAE@OCKANOKK@100?5S1x3?8varName?8?0?8path?8?$HL?$HLT?$CCis_a@ 000000018006c7f0     c3_modello_2017b_levaRetro_acc.obj
 0002:00001900       ??_C@_0HD@MFKDFBKF@Stateflow?5Internal?5Error?3?6Error?5@ 000000018006c900     c3_modello_2017b_levaRetro_acc.obj
 0002:00001978       ??_C@_0O@JBCCHCMN@enable_drives?$AA@ 000000018006c978     c27_modello_2017b_levaRetro_acc.obj
 0002:00001988       ??_C@_0BA@LCOBEPJM@enable_ethercat?$AA@ 000000018006c988     c27_modello_2017b_levaRetro_acc.obj
 0002:00001998       ??_C@_0O@MJACHDJP@enable_forces?$AA@ 000000018006c998     c27_modello_2017b_levaRetro_acc.obj
 0002:000019a8       ??_C@_0N@EGCIIJBD@x_axis_reset?$AA@ 000000018006c9a8     c27_modello_2017b_levaRetro_acc.obj
 0002:000019b8       ??_C@_0N@JLLOFAJG@y_axis_reset?$AA@ 000000018006c9b8     c27_modello_2017b_levaRetro_acc.obj
 0002:000019c8       ??_C@_07LBFNLBGP@timenow?$AA@ 000000018006c9c8     c27_modello_2017b_levaRetro_acc.obj
 0002:000019d0       ??_C@_0CK@FJDFFFCG@is_active_c27_modello_2017b_leva@ 000000018006c9d0     c27_modello_2017b_levaRetro_acc.obj
 0002:00001a00       ??_C@_0CD@FGAJNKJJ@is_c27_modello_2017b_levaRetro_a@ 000000018006ca00     c27_modello_2017b_levaRetro_acc.obj
 0002:00001a30       ??_C@_0BGK@LHHFHLCK@100?5S1x9?8type?8?0?8srcId?8?0?8name?8?0?8a@ 000000018006ca30     c27_modello_2017b_levaRetro_acc.obj
 0002:00001b9c       ??_C@_05FAGFPHJG@start?$AA@ 000000018006cb9c     c27_modello_2017b_levaRetro_acc.obj
 0002:00001ba8       ??_C@_09HFOGINOG@eth_ready?$AA@ 000000018006cba8     c27_modello_2017b_levaRetro_acc.obj
 0002:00001bb4       ??_C@_04CLCEDBPF@time?$AA@ 000000018006cbb4     c27_modello_2017b_levaRetro_acc.obj
 0002:00001bc0       ??_C@_0BA@FFFAMIMP@x_axis_drive_en?$AA@ 000000018006cbc0     c27_modello_2017b_levaRetro_acc.obj
 0002:00001bd0       ??_C@_0BA@PLDIFJFO@y_axis_drive_en?$AA@ 000000018006cbd0     c27_modello_2017b_levaRetro_acc.obj
 0002:00001be0       ??_C@_0ME@OGBOFNKA@100?5S1x2?8varName?8?0?8path?8?$HL?$HLT?$CCis_a@ 000000018006cbe0     c27_modello_2017b_levaRetro_acc.obj
 0002:00001cb0       ??_C@_0BCI@KMKPFHIP@100?5S1x4?8type?8?0?8isSigned?8?0?8wordL@ 000000018006ccb0     c27_modello_2017b_levaRetro_acc.obj
 0002:00001de0       ??_C@_0HE@OOEFOFDE@Stateflow?5Internal?5Error?3?6Error?5@ 000000018006cde0     c27_modello_2017b_levaRetro_acc.obj
 0002:00001e58       __real@408f400000000000    000000018006ce58     c27_modello_2017b_levaRetro_acc.obj
 0002:00001e60       ??_C@_08IKOLDACC@sel_gear?$AA@ 000000018006ce60     c52_modello_2017b_levaRetro_acc.obj
 0002:00001e6c       ??_C@_05EIBGDMPB@field?$AA@ 000000018006ce6c     c52_modello_2017b_levaRetro_acc.obj
 0002:00001e74       ??_C@_03BALCFKBP@val?$AA@  000000018006ce74     c52_modello_2017b_levaRetro_acc.obj
 0002:00001e78       ??_C@_0P@OIIBHGPM@gearshift_grid?$AA@ 000000018006ce78     c52_modello_2017b_levaRetro_acc.obj
 0002:00001e88       ??_C@_0BA@GMCPEJNM@selection_x_neg?$AA@ 000000018006ce88     c52_modello_2017b_levaRetro_acc.obj
 0002:00001e98       ??_C@_0BA@PPNADLPD@selection_x_pos?$AA@ 000000018006ce98     c52_modello_2017b_levaRetro_acc.obj
 0002:00001ea8       ??_C@_0BB@PDPPNNDP@selection1_y_neg?$AA@ 000000018006cea8     c52_modello_2017b_levaRetro_acc.obj
 0002:00001ec0       ??_C@_0BB@GAAAKPBA@selection1_y_pos?$AA@ 000000018006cec0     c52_modello_2017b_levaRetro_acc.obj
 0002:00001ed8       ??_C@_0BB@HNHANKNM@selection2_y_neg?$AA@ 000000018006ced8     c52_modello_2017b_levaRetro_acc.obj
 0002:00001ef0       ??_C@_0BB@OOIPKIPD@selection2_y_pos?$AA@ 000000018006cef0     c52_modello_2017b_levaRetro_acc.obj
 0002:00001f08       ??_C@_0BD@LONMFDAF@gearshift_grid_dyn?$AA@ 000000018006cf08     c52_modello_2017b_levaRetro_acc.obj
 0002:00001f1c       ??_C@_06MGFFDGOD@statex?$AA@ 000000018006cf1c     c52_modello_2017b_levaRetro_acc.obj
 0002:00001f28       ??_C@_0P@CCFLIDKC@corsa_marcia_x?$AA@ 000000018006cf28     c52_modello_2017b_levaRetro_acc.obj
 0002:00001f38       ??_C@_07JLNKJNA@muro_dx?$AA@ 000000018006cf38     c52_modello_2017b_levaRetro_acc.obj
 0002:00001f40       ??_C@_07BANEBMCF@muro_sx?$AA@ 000000018006cf40     c52_modello_2017b_levaRetro_acc.obj
 0002:00001f48       ??_C@_0BH@KBDJHDBN@punto_marcia_innestata?$AA@ 000000018006cf48     c52_modello_2017b_levaRetro_acc.obj
 0002:00001f60       ??_C@_07BMCLMDGE@up_gear?$AA@ 000000018006cf60     c52_modello_2017b_levaRetro_acc.obj
 0002:00001f68       ??_C@_0CK@LMGBKADJ@is_active_c52_modello_2017b_leva@ 000000018006cf68     c52_modello_2017b_levaRetro_acc.obj
 0002:00001f98       ??_C@_0BF@DJDBJKH@is_active_asse_x_dyn?$AA@ 000000018006cf98     c52_modello_2017b_levaRetro_acc.obj
 0002:00001fb0       ??_C@_0O@EKKDOIA@is_asse_x_dyn?$AA@ 000000018006cfb0     c52_modello_2017b_levaRetro_acc.obj
 0002:00001fc0       ??_C@_0BFL@BMJDDELC@100?5S1x9?8type?8?0?8srcId?8?0?8name?8?0?8a@ 000000018006cfc0     c52_modello_2017b_levaRetro_acc.obj
 0002:0000211c       ??_C@_04BCBLCKIP@posx?$AA@ 000000018006d11c     c52_modello_2017b_levaRetro_acc.obj
 0002:00002124       ??_C@_04LAABLMO@posy?$AA@  000000018006d124     c52_modello_2017b_levaRetro_acc.obj
 0002:00002130       ??_C@_0O@FJAOCFLG@selected_gear?$AA@ 000000018006d130     c52_modello_2017b_levaRetro_acc.obj
 0002:00002140       ??_C@_0N@DOHFMKCP@retro_button?$AA@ 000000018006d140     c52_modello_2017b_levaRetro_acc.obj
 0002:00002150       ??_C@_04HKFDNBLD@init?$AA@ 000000018006d150     c52_modello_2017b_levaRetro_acc.obj
 0002:00002158       ??_C@_09HILHDALD@offset_pf?$AA@ 000000018006d158     c52_modello_2017b_levaRetro_acc.obj
 0002:00002168       ??_C@_0BF@NLPIIEGH@gearshift_grid_r_dyn?$AA@ 000000018006d168     c52_modello_2017b_levaRetro_acc.obj
 0002:00002180       ??_C@_0OC@MACOKEBF@100?5S1x3?8varName?8?0?8path?8?$HL?$HLT?$CCis_a@ 000000018006d180     c52_modello_2017b_levaRetro_acc.obj
 0002:00002270       ??_C@_0BOK@OEDHJFIL@100?5S1x9?8type?8?0?8isSigned?8?0?8wordL@ 000000018006d270     c52_modello_2017b_levaRetro_acc.obj
 0002:00002460       ??_C@_0HE@LKNMNBJB@Stateflow?5Internal?5Error?3?6Error?5@ 000000018006d460     c52_modello_2017b_levaRetro_acc.obj
 0002:000024d8       __real@4018000000000000    000000018006d4d8     c52_modello_2017b_levaRetro_acc.obj
 0002:000024e0       __real@41000000            000000018006d4e0     c52_modello_2017b_levaRetro_acc.obj
 0002:000024e4       ??_C@_06NPEOAHKC@statey?$AA@ 000000018006d4e4     c152_modello_2017b_levaRetro_acc.obj
 0002:000024f0       ??_C@_0CL@PFAIFGGM@is_active_c152_modello_2017b_lev@ 000000018006d4f0     c152_modello_2017b_levaRetro_acc.obj
 0002:00002520       ??_C@_0BB@FFJMNIBB@is_active_asse_x?$AA@ 000000018006d520     c152_modello_2017b_levaRetro_acc.obj
 0002:00002538       ??_C@_0BB@EMIHOJFA@is_active_asse_y?$AA@ 000000018006d538     c152_modello_2017b_levaRetro_acc.obj
 0002:00002550       ??_C@_09OGFEJJCK@is_asse_x?$AA@ 000000018006d550     c152_modello_2017b_levaRetro_acc.obj
 0002:00002560       ??_C@_09PPEPKIGL@is_asse_y?$AA@ 000000018006d560     c152_modello_2017b_levaRetro_acc.obj
 0002:00002570       ??_C@_0BGN@JADGCAPH@100?5S1x10?8type?8?0?8srcId?8?0?8name?8?0?8@ 000000018006d570     c152_modello_2017b_levaRetro_acc.obj
 0002:000026e0       ??_C@_0FN@FBEOJIOB@100?5S1x2?8type?8?0?8srcId?8?0?8name?8?0?8a@ 000000018006d6e0     c152_modello_2017b_levaRetro_acc.obj
 0002:00002740       ??_C@_0BB@HLIGOAMA@gearshift_grid_r?$AA@ 000000018006d740     c152_modello_2017b_levaRetro_acc.obj
 0002:00002760       ??_C@_0BCA@BBPOCBPL@100?5S1x5?8varName?8?0?8path?8?$HL?$HLT?$CCis_a@ 000000018006d760     c152_modello_2017b_levaRetro_acc.obj
 0002:00002880       ??_C@_0CBA@FLEBLGHE@100?5S1x10?8type?8?0?8isSigned?8?0?8word@ 000000018006d880     c152_modello_2017b_levaRetro_acc.obj
 0002:00002a90       ??_C@_0LD@OODJKGCE@100?5S?8type?8?0?8isSigned?8?0?8wordLeng@ 000000018006da90     c152_modello_2017b_levaRetro_acc.obj
 0002:00002b50       ??_C@_0HF@DDNAFDAC@Stateflow?5Internal?5Error?3?6Error?5@ 000000018006db50     c152_modello_2017b_levaRetro_acc.obj
 0002:00002bc8       __real@4008000000000000    000000018006dbc8     c152_modello_2017b_levaRetro_acc.obj
 0002:00002bd0       ??_C@_0CH@GJKNMAPO@crossgate1_begleft_retright_stab@ 000000018006dbd0     c451_modello_2017b_levaRetro_acc.obj
 0002:00002bf8       ??_C@_0CH@OBEINPB@crossgate1_retleft_begright_stab@ 000000018006dbf8     c451_modello_2017b_levaRetro_acc.obj
 0002:00002c20       ??_C@_03INFFGLEP@t_m?$AA@  000000018006dc20     c451_modello_2017b_levaRetro_acc.obj
 0002:00002c28       ??_C@_0BO@LHPDHHHD@crossgate1_left_pos_threshold?$AA@ 000000018006dc28     c451_modello_2017b_levaRetro_acc.obj
 0002:00002c48       ??_C@_0BP@DKOJIGHJ@crossgate1_right_pos_threshold?$AA@ 000000018006dc48     c451_modello_2017b_levaRetro_acc.obj
 0002:00002c68       ??_C@_0N@GCKNPBNL@off_sw_curve?$AA@ 000000018006dc68     c451_modello_2017b_levaRetro_acc.obj
 0002:00002c78       ??_C@_05HIKPKPAA@curve?$AA@ 000000018006dc78     c451_modello_2017b_levaRetro_acc.obj
 0002:00002c80       ??_C@_05GFCDIDHO@debug?$AA@ 000000018006dc80     c451_modello_2017b_levaRetro_acc.obj
 0002:00002c88       ??_C@_0CL@DBPJGMPE@is_active_c451_modello_2017b_lev@ 000000018006dc88     c451_modello_2017b_levaRetro_acc.obj
 0002:00002cb8       ??_C@_0CE@GKCIPOGG@is_c451_modello_2017b_levaRetro_@ 000000018006dcb8     c451_modello_2017b_levaRetro_acc.obj
 0002:00002ce0       ??_C@_0BB@NOHGEPNO@is_state_machine?$AA@ 000000018006dce0     c451_modello_2017b_levaRetro_acc.obj
 0002:00002d00       ??_C@_0OH@DIKBLDGC@100?5S1x5?8type?8?0?8srcId?8?0?8name?8?0?8a@ 000000018006dd00     c451_modello_2017b_levaRetro_acc.obj
 0002:00002de8       ??_C@_03PCBNCGFH@pos?$AA@  000000018006dde8     c451_modello_2017b_levaRetro_acc.obj
 0002:00002dec       ??_C@_03ICKAGFLH@eps?$AA@  000000018006ddec     c451_modello_2017b_levaRetro_acc.obj
 0002:00002df0       ??_C@_0BAA@JMMNBFHO@100?5S1x3?8varName?8?0?8path?8?$HL?$HLT?$CCis_a@ 000000018006ddf0     c451_modello_2017b_levaRetro_acc.obj
 0002:00002ef0       ??_C@_0HF@BLKKAJKL@Stateflow?5Internal?5Error?3?6Error?5@ 000000018006def0     c451_modello_2017b_levaRetro_acc.obj
 0002:00002f68       __real@3f1a36e2eb1c432d    000000018006df68     c451_modello_2017b_levaRetro_acc.obj
 0002:00002f70       ??_C@_0CH@CNAMOFOG@crossgate2_begleft_retright_stab@ 000000018006df70     c463_modello_2017b_levaRetro_acc.obj
 0002:00002f98       ??_C@_0BO@MMONPFJA@crossgate2_left_pos_threshold?$AA@ 000000018006df98     c463_modello_2017b_levaRetro_acc.obj
 0002:00002fb8       ??_C@_0CH@EKLFKIOJ@crossgate2_retleft_begright_stab@ 000000018006dfb8     c463_modello_2017b_levaRetro_acc.obj
 0002:00002fe0       ??_C@_0BP@DJBCLDJ@crossgate2_right_pos_threshold?$AA@ 000000018006dfe0     c463_modello_2017b_levaRetro_acc.obj
 0002:00003000       ??_C@_0CL@FKBAJDJH@is_active_c463_modello_2017b_lev@ 000000018006e000     c463_modello_2017b_levaRetro_acc.obj
 0002:00003030       ??_C@_0CE@BMBABAF@is_c463_modello_2017b_levaRetro_@ 000000018006e030     c463_modello_2017b_levaRetro_acc.obj
 0002:00003060       ??_C@_0OH@EBKONJDJ@100?5S1x5?8type?8?0?8srcId?8?0?8name?8?0?8a@ 000000018006e060     c463_modello_2017b_levaRetro_acc.obj
 0002:00003150       ??_C@_0BAA@LPHGCGJD@100?5S1x3?8varName?8?0?8path?8?$HL?$HLT?$CCis_a@ 000000018006e150     c463_modello_2017b_levaRetro_acc.obj
 0002:00003250       ??_C@_0HF@NBNGIDLK@Stateflow?5Internal?5Error?3?6Error?5@ 000000018006e250     c463_modello_2017b_levaRetro_acc.obj
 0002:000032c8       __real@3f50624dd2f1a9fc    000000018006e2c8     c463_modello_2017b_levaRetro_acc.obj
 0002:000032d0       DYNAMIC_DIMENSION_DEF      000000018006e2d0     modello_2017b_levaRetro_acc_sfun_registry.obj
 0002:000032e8       ??_C@_0O@EMPBGPFO@sf_mex_unlock?$AA@ 000000018006e2e8     modello_2017b_levaRetro_acc_sfun_registry.obj
 0002:000032f8       ??_C@_0BG@IBKJPFO@Unsuccessful?5command?4?$AA@ 000000018006e2f8     modello_2017b_levaRetro_acc_sfun_registry.obj
 0002:00003310       ??_C@_06EJFCAODB@sfc_sf?$AA@ 000000018006e310     modello_2017b_levaRetro_acc_sfun_registry.obj
 0002:00003318       ??_C@_0BD@NMFAPBEK@mdlInitializeSizes?$AA@ 000000018006e318     modello_2017b_levaRetro_acc_sfun_registry.obj
 0002:00003330       ??_C@_0BJ@PBIFPMMD@mdlInitializeSampleTimes?$AA@ 000000018006e330     modello_2017b_levaRetro_acc_sfun_registry.obj
 0002:00003350       ??_C@_0CE@KLHPLFLE@Incorrect?5absolute?5tolerance?5val@ 000000018006e350     modello_2017b_levaRetro_acc_sfun_registry.obj
 0002:00003380       ??_C@_0HH@KMLFCCMI@?$DMdiag_root?$DO?$DMdiag?5id?$DN?$CCSimulink?3SF@ 000000018006e380     modello_2017b_levaRetro_acc_sfun_registry.obj
 0002:000033f8       ??_C@_07KEMHKLEK@sf_sfun?$AA@ 000000018006e3f8     modello_2017b_levaRetro_acc_sfun_registry.obj
 0002:00003400       ??_C@_0P@MPEDGIBG@block?5?8?$CFs?8?3?5?$CFs?$AA@ 000000018006e400     modello_2017b_levaRetro_acc_sfun_registry.obj
 0002:00003410       ??_C@_0DK@JDMJONGD@Simulink?3SFunctions?3SimStructLev@ 000000018006e410     modello_2017b_levaRetro_acc_sfun_registry.obj
 0002:00003450       ??_C@_07ONPBMBOP@message?$AA@ 000000018006e450     modello_2017b_levaRetro_acc_sfun_registry.obj
 0002:00003458       ??_C@_05KKCIMGE@error?$AA@ 000000018006e458     modello_2017b_levaRetro_acc_sfun_registry.obj
 0002:00003460       ??_C@_0EG@MNMJEMPF@Simulink?3SFunctions?3SimStructLev@ 000000018006e460     modello_2017b_levaRetro_acc_sfun_registry.obj
 0002:000034b0       ??_C@_0FC@GBGNPKDI@Simulink?3SFunctions?3SimStructLev@ 000000018006e4b0     modello_2017b_levaRetro_acc_sfun_registry.obj
 0002:00003510       ??_C@_0EO@EJAAMKKI@Simulink?3SFunctions?3SimStructLev@ 000000018006e510     modello_2017b_levaRetro_acc_sfun_registry.obj
 0002:00003560       ??_C@_0FJ@KLNKPMHL@Simulink?3SFunctions?3SimStructRep@ 000000018006e560     modello_2017b_levaRetro_acc_sfun_registry.obj
 0002:000035c0       ??_C@_07FPLKDJGL@warning?$AA@ 000000018006e5c0     modello_2017b_levaRetro_acc_sfun_registry.obj
 0002:000035d0       ??_C@_0FL@OODBIENJ@Simulink?3SFunctions?3SimStructRep@ 000000018006e5d0     modello_2017b_levaRetro_acc_sfun_registry.obj
 0002:00003630       ??_C@_0HG@IJBFEFEB@?$DMdiag_root?$DO?$DMdiag?5id?$DN?$CCSimulink?3SF@ 000000018006e630     modello_2017b_levaRetro_acc_sfun_registry.obj
 0002:000036b0       ??_C@_0HB@KLFCCBHA@?$DMdiag_root?$DO?$DMdiag?5id?$DN?$CCSimulink?3SF@ 000000018006e6b0     modello_2017b_levaRetro_acc_sfun_registry.obj
 0002:00003730       ??_C@_0HG@ENOKACAF@?$DMdiag_root?$DO?$DMdiag?5id?$DN?$CCSimulink?3SF@ 000000018006e730     modello_2017b_levaRetro_acc_sfun_registry.obj
 0002:000037b0       ??_C@_0GK@PAJALLBP@?$DMdiag_root?$DO?$DMdiag?5id?$DN?$CCSimulink?3SF@ 000000018006e7b0     modello_2017b_levaRetro_acc_sfun_registry.obj
 0002:00003820       ??_C@_0HH@EEBJCADM@?$DMdiag_root?$DO?$DMdiag?5id?$DN?$CCSimulink?3SF@ 000000018006e820     modello_2017b_levaRetro_acc_sfun_registry.obj
 0002:000038a0       ??_C@_0HG@PGIKLJGP@?$DMdiag_root?$DO?$DMdiag?5id?$DN?$CCSimulink?3SF@ 000000018006e8a0     modello_2017b_levaRetro_acc_sfun_registry.obj
 0002:00003918       ??_C@_0BE@OBOJGMOM@SFcnParamSettings?5?$HL?$AA@ 000000018006e918     modello_2017b_levaRetro_acc_sfun_registry.obj
 0002:00003930       ??_C@_0HF@PPHMMJCF@?$DMdiag_root?$DO?$DMdiag?5id?$DN?$CCSimulink?3SF@ 000000018006e930     modello_2017b_levaRetro_acc_sfun_registry.obj
 0002:000039a8       ??_C@_01CELHOKLL@?$HN?$AA@ 000000018006e9a8     modello_2017b_levaRetro_acc_sfun_registry.obj
 0002:000039ac       ??_C@_05DHHBANHM@RWork?$AA@ 000000018006e9ac     modello_2017b_levaRetro_acc_sfun_registry.obj
 0002:000039b4       ??_C@_05FOGAPPCE@IWork?$AA@ 000000018006e9b4     modello_2017b_levaRetro_acc_sfun_registry.obj
 0002:000039bc       ??_C@_05HKLJKMHH@PWork?$AA@ 000000018006e9bc     modello_2017b_levaRetro_acc_sfun_registry.obj
 0002:000039d0       ??_C@_0HH@KFACNCFO@?$DMdiag_root?$DO?$DMdiag?5id?$DN?$CCSimulink?3SF@ 000000018006e9d0     modello_2017b_levaRetro_acc_sfun_registry.obj
 0002:00003a50       ??_C@_0HK@FCNHNABE@?$DMdiag_root?$DO?$DMdiag?5id?$DN?$CCSimulink?3SF@ 000000018006ea50     modello_2017b_levaRetro_acc_sfun_registry.obj
 0002:00003ad0       ??_C@_0HL@IHIFDCEN@?$DMdiag_root?$DO?$DMdiag?5id?$DN?$CCSimulink?3SF@ 000000018006ead0     modello_2017b_levaRetro_acc_sfun_registry.obj
 0002:00003b50       ??_C@_0N@FPDCMLNJ@Num?$CFsDefines?$AA@ 000000018006eb50     modello_2017b_levaRetro_acc_sfun_registry.obj
 0002:00003b60       ??_C@_0L@HMFJKAEE@?$CFsDefine?5?$HL?$AA@ 000000018006eb60     modello_2017b_levaRetro_acc_sfun_registry.obj
 0002:00003b6c       ??_C@_04FABLJDN@Name?$AA@  000000018006eb6c     modello_2017b_levaRetro_acc_sfun_registry.obj
 0002:00003b74       ??_C@_05IBAMDCFI@Width?$AA@ 000000018006eb74     modello_2017b_levaRetro_acc_sfun_registry.obj
 0002:00003b80       ??_C@_0L@CECHCPAP@StartIndex?$AA@ 000000018006eb80     modello_2017b_levaRetro_acc_sfun_registry.obj
 0002:00003b90       ??_C@_0KJ@OMHNJMAH@?$DMdiag_root?$DO?$DMdiag?5id?$DN?$CCSimulink?3SF@ 000000018006eb90     modello_2017b_levaRetro_acc_sfun_registry.obj
 0002:00003c40       ??_C@_0DA@HHHDBKEE@Simulink?3SFunctions?3SimStructToo@ 000000018006ec40     modello_2017b_levaRetro_acc_sfun_registry.obj
 0002:00003c70       ??_C@_0DB@EBNONJLI@Simulink?3SFunctions?3SimStructToo@ 000000018006ec70     modello_2017b_levaRetro_acc_sfun_registry.obj
 0002:00003ca8       ??_C@_0DF@LECGIHAP@Simulink?3SFunctions?3SimStructFor@ 000000018006eca8     modello_2017b_levaRetro_acc_sfun_registry.obj
 0002:00003ce0       ??_C@_0DF@KLOALPBI@Simulink?3SFunctions?3SimStructInv@ 000000018006ece0     modello_2017b_levaRetro_acc_sfun_registry.obj
 0002:00003d18       ??_C@_0BD@OAOBGOLA@simulink_only_sfcn?$AA@ 000000018006ed18     modello_2017b_levaRetro_acc_sfun_registry.obj
 0002:00003d30       ??_C@_0DD@FAABOPOD@Simulink?3SFunctions?3SimStructSFu@ 000000018006ed30     modello_2017b_levaRetro_acc_sfun_registry.obj
 0002:00003d68       ??_C@_0BN@KKBJFHKE@mdlInitializePropagationPass?$AA@ 000000018006ed68     modello_2017b_levaRetro_acc_sfun_registry.obj
 0002:00003d90       ??_C@_0IA@NLNNNPED@?$DMdiag_root?$DO?$DMdiag?5id?$DN?$CCSimulink?3SF@ 000000018006ed90     modello_2017b_levaRetro_acc_sfun_registry.obj
 0002:00003e10       ??_C@_0BF@NNJPCDFB@mdlSetInputPortWidth?$AA@ 000000018006ee10     modello_2017b_levaRetro_acc_sfun_registry.obj
 0002:00003e28       ??_C@_0BG@KOHJDKHL@mdlSetOutputPortWidth?$AA@ 000000018006ee28     modello_2017b_levaRetro_acc_sfun_registry.obj
 0002:00003e40       ??_C@_0BN@HGDPOLBJ@mdlSetInputPortDimensionInfo?$AA@ 000000018006ee40     modello_2017b_levaRetro_acc_sfun_registry.obj
 0002:00003e60       ??_C@_0BO@JCKACOBK@mdlSetOutputPortDimensionInfo?$AA@ 000000018006ee60     modello_2017b_levaRetro_acc_sfun_registry.obj
 0002:00003e80       ??_C@_0BP@DBBADNGL@mdlSetDefaultPortDimensionInfo?$AA@ 000000018006ee80     modello_2017b_levaRetro_acc_sfun_registry.obj
 0002:00003ea0       ??_C@_0CC@DKLMOAMA@mdlSetInputPortSymbolicDimension@ 000000018006eea0     modello_2017b_levaRetro_acc_sfun_registry.obj
 0002:00003ec8       ??_C@_0CD@PANCENAB@mdlSetOutputPortSymbolicDimensio@ 000000018006eec8     modello_2017b_levaRetro_acc_sfun_registry.obj
 0002:00003ef0       ??_C@_0BK@IBIEIFAK@mdlSetInputPortSampleTime?$AA@ 000000018006eef0     modello_2017b_levaRetro_acc_sfun_registry.obj
 0002:00003f10       ??_C@_0BL@IOJJCMJN@mdlSetOutputPortSampleTime?$AA@ 000000018006ef10     modello_2017b_levaRetro_acc_sfun_registry.obj
 0002:00003f30       ??_C@_0BI@PPJHJKCK@mdlSetInputPortDataType?$AA@ 000000018006ef30     modello_2017b_levaRetro_acc_sfun_registry.obj
 0002:00003f48       ??_C@_0BJ@BICELHDK@mdlSetOutputPortDataType?$AA@ 000000018006ef48     modello_2017b_levaRetro_acc_sfun_registry.obj
 0002:00003f68       ??_C@_0BL@CMPKLPCM@mdlSetDefaultPortDataTypes?$AA@ 000000018006ef68     modello_2017b_levaRetro_acc_sfun_registry.obj
 0002:00003f88       ??_C@_0BN@CFNNAHED@mdlSetInputPortComplexSignal?$AA@ 000000018006ef88     modello_2017b_levaRetro_acc_sfun_registry.obj
 0002:00003fa8       ??_C@_0BO@MBECMCEA@mdlSetOutputPortComplexSignal?$AA@ 000000018006efa8     modello_2017b_levaRetro_acc_sfun_registry.obj
 0002:00003fc8       ??_C@_0CA@FFKONINO@mdlSetDefaultPortComplexSignals?$AA@ 000000018006efc8     modello_2017b_levaRetro_acc_sfun_registry.obj
 0002:00003fe8       ??_C@_0BJ@KGDHKOJK@mdlSetInputPortFrameData?$AA@ 000000018006efe8     modello_2017b_levaRetro_acc_sfun_registry.obj
 0002:00004008       ??_C@_0BB@PDAHPFHN@mdlSetWorkWidths?$AA@ 000000018006f008     modello_2017b_levaRetro_acc_sfun_registry.obj
 0002:0000401c       ??_C@_06LIBOFAHC@mdlRTW?$AA@ 000000018006f01c     modello_2017b_levaRetro_acc_sfun_registry.obj
 0002:00004028       ??_C@_0BI@BBOHIAMH@mdlInitializeConditions?$AA@ 000000018006f028     modello_2017b_levaRetro_acc_sfun_registry.obj
 0002:00004040       ??_C@_08LFJJKJIO@mdlStart?$AA@ 000000018006f040     modello_2017b_levaRetro_acc_sfun_registry.obj
 0002:00004050       ??_C@_09PGFAIFDC@mdlEnable?$AA@ 000000018006f050     modello_2017b_levaRetro_acc_sfun_registry.obj
 0002:00004060       ??_C@_0L@DPBGDFAL@mdlDisable?$AA@ 000000018006f060     modello_2017b_levaRetro_acc_sfun_registry.obj
 0002:00004070       ??_C@_0BD@HOFCNFMB@mdlCheckParameters?$AA@ 000000018006f070     modello_2017b_levaRetro_acc_sfun_registry.obj
 0002:00004088       ??_C@_0BF@GGGPMFBF@mdlProcessParameters?$AA@ 000000018006f088     modello_2017b_levaRetro_acc_sfun_registry.obj
 0002:000040a0       ??_C@_0P@LLCFDAGJ@mdlExtModeExec?$AA@ 000000018006f0a0     modello_2017b_levaRetro_acc_sfun_registry.obj
 0002:000040b0       ??_C@_09GADCKIEB@mdlUpdate?$AA@ 000000018006f0b0     modello_2017b_levaRetro_acc_sfun_registry.obj
 0002:000040c0       ??_C@_0P@MAILCFNM@mdlDerivatives?$AA@ 000000018006f0c0     modello_2017b_levaRetro_acc_sfun_registry.obj
 0002:000040d0       ??_C@_0P@CNEEPBNP@mdlGetSimState?$AA@ 000000018006f0d0     modello_2017b_levaRetro_acc_sfun_registry.obj
 0002:000040e0       ??_C@_0P@CCFKCHFM@mdlSetSimState?$AA@ 000000018006f0e0     modello_2017b_levaRetro_acc_sfun_registry.obj
 0002:000040f0       ??_C@_0HF@DJGDHCGH@?$DMdiag_root?$DO?$DMdiag?5id?$DN?$CCSimulink?3SF@ 000000018006f0f0     modello_2017b_levaRetro_acc_sfun_registry.obj
 0002:00004170       ??_C@_0HH@OEMIKLEJ@Error?5in?5file?5?8?$CFs?8?5on?5line?5?$CFd?4?5T@ 000000018006f170     modello_2017b_levaRetro_acc_sfun_registry.obj
 0002:000041e8       ??_C@_0BA@MKCHIMDN@ssSetIWorkValue?$AA@ 000000018006f1e8     modello_2017b_levaRetro_acc_sfun_registry.obj
 0002:000041f8       ??_C@_0BA@LFDJDPEK@ssGetIWorkValue?$AA@ 000000018006f1f8     modello_2017b_levaRetro_acc_sfun_registry.obj
 0002:00004208       ??_C@_0BA@EHPAMPLC@ssSetRWorkValue?$AA@ 000000018006f208     modello_2017b_levaRetro_acc_sfun_registry.obj
 0002:00004218       ??_C@_0BA@DIOOHMMF@ssGetRWorkValue?$AA@ 000000018006f218     modello_2017b_levaRetro_acc_sfun_registry.obj
 0002:00004228       ??_C@_0BA@BPJMHGHD@ssSetPWorkValue?$AA@ 000000018006f228     modello_2017b_levaRetro_acc_sfun_registry.obj
 0002:00004238       ??_C@_0BA@GAICMFAE@ssGetPWorkValue?$AA@ 000000018006f238     modello_2017b_levaRetro_acc_sfun_registry.obj
 0002:00004248       __real@41602cbca0000000    000000018006f248     modello_2017b_levaRetro_acc_sfun_registry.obj
 0002:00004250       __real@bff0000000000000    000000018006f250     modello_2017b_levaRetro_acc_sfun_registry.obj
 0002:00004258       _pDefaultRawDllMain        000000018006f258     MSVCRT:dll_dllmain.obj
 0002:00004258       _pRawDllMain               000000018006f258     MSVCRT:dll_dllmain.obj
 0002:00004290       _load_config_used          000000018006f290     MSVCRT:loadcfg.obj
 0002:00004550       __rtc_iaa                  000000018006f550     MSVCRT:_initsect_.obj
 0002:00004558       __rtc_izz                  000000018006f558     MSVCRT:_initsect_.obj
 0002:00004560       __rtc_taa                  000000018006f560     MSVCRT:_initsect_.obj
 0002:00004568       __rtc_tzz                  000000018006f568     MSVCRT:_initsect_.obj
 0002:000071dc       __IMPORT_DESCRIPTOR_sf_runtime 00000001800721dc     sf_runtime:sf_runtime.dll
 0002:000071f0       __IMPORT_DESCRIPTOR_libmx  00000001800721f0     libmx:libmx.dll
 0002:00007204       __IMPORT_DESCRIPTOR_libmex 0000000180072204     libmex:libmex.dll
 0002:00007218       __IMPORT_DESCRIPTOR_libut  0000000180072218     libut:libut.dll
 0002:0000722c       __IMPORT_DESCRIPTOR_libmwmathutil 000000018007222c     libmwmathutil:libmwmathutil.dll
 0002:00007240       __IMPORT_DESCRIPTOR_KERNEL32 0000000180072240     kernel32:KERNEL32.dll
 0002:00007254       __IMPORT_DESCRIPTOR_VCRUNTIME140 0000000180072254     vcruntime:VCRUNTIME140.dll
 0002:00007268       __IMPORT_DESCRIPTOR_api-ms-win-crt-string-l1-1-0 0000000180072268     ucrt:api-ms-win-crt-string-l1-1-0.dll
 0002:0000727c       __IMPORT_DESCRIPTOR_api-ms-win-crt-stdio-l1-1-0 000000018007227c     ucrt:api-ms-win-crt-stdio-l1-1-0.dll
 0002:00007290       __IMPORT_DESCRIPTOR_api-ms-win-crt-heap-l1-1-0 0000000180072290     ucrt:api-ms-win-crt-heap-l1-1-0.dll
 0002:000072a4       __IMPORT_DESCRIPTOR_api-ms-win-crt-runtime-l1-1-0 00000001800722a4     ucrt:api-ms-win-crt-runtime-l1-1-0.dll
 0002:000072b8       __NULL_IMPORT_DESCRIPTOR   00000001800722b8     sf_runtime:sf_runtime.dll
 0003:00002018       DYNAMIC_DIMENSION          0000000180076018     modello_2017b_levaRetro_acc_sfun_registry.obj
 0003:00002040       __security_cookie          0000000180076040     MSVCRT:gs_cookie.obj
 0003:00002048       __security_cookie_complement 0000000180076048     MSVCRT:gs_cookie.obj
 0003:00002050       _fltused                   0000000180076050     MSVCRT:dllsupp.obj
 0003:00002054       __scrt_native_dllmain_reason 0000000180076054     MSVCRT:utility.obj
 0003:00002058       __isa_available            0000000180076058     MSVCRT:_cpu_disp_.obj
 0003:0000205c       __isa_enabled              000000018007605c     MSVCRT:_cpu_disp_.obj
 0003:00002060       __memcpy_nt_iters          0000000180076060     MSVCRT:_cpu_disp_.obj
 0003:00002070       __scrt_ucrt_dll_is_in_use  0000000180076070     MSVCRT:ucrt_stubs.obj
 0003:000021e0       sfGlobalDebugInstanceStruct 00000001800761e0     modello_2017b_levaRetro_acc_sfun_registry.obj
 0003:00003770       __scrt_current_native_startup_state 0000000180077770     MSVCRT:utility.obj
 0003:00003778       __scrt_native_startup_lock 0000000180077778     MSVCRT:utility.obj
 0003:000037c0       ?__type_info_root_node@@3U__type_info_node@@A 00000001800777c0     MSVCRT:tncleanup.obj
 0003:000037d0       ?_OptionsStorage@?1??__local_stdio_printf_options@@9@4_KA 00000001800777d0     MSVCRT:default_local_stdio_options.obj
 0003:000037d8       ?_OptionsStorage@?1??__local_stdio_scanf_options@@9@4_KA 00000001800777d8     MSVCRT:default_local_stdio_options.obj
 0003:000037e0       __scrt_debugger_hook_flag  00000001800777e0     MSVCRT:utility_desktop.obj
 0003:000037e4       __favor                    00000001800777e4     MSVCRT:_cpu_disp_.obj
 0003:000037e8       ?_OptionsStorage@?1??__local_stdio_printf_options@@9@9 00000001800777e8     <common>
 0003:000037f0       _modello_2017b_levaRetro_accMachineNumber_ 00000001800777f0     <common>
 0003:000037f8       __dyn_tls_init_callback    00000001800777f8     <common>

 entry point at        0001:000682e8

 Static symbols

 0000:00000000       .debug$S                   0000000180000000     sf_runtime:sf_runtime.dll
 0000:00000000       .debug$S                   0000000180000000     modello_2017b_levaRetro_acc_sfun.exp
 0000:00000000       .debug$S                   0000000180000000     sf_runtime:sf_runtime.dll
 0000:00000000       .debug$S                   0000000180000000     sf_runtime:sf_runtime.dll
 0000:00000000       .debug$S                   0000000180000000     sf_runtime:sf_runtime.dll
 0000:00000000       .debug$S                   0000000180000000     sf_runtime:sf_runtime.dll
 0000:00000000       .debug$S                   0000000180000000     sf_runtime:sf_runtime.dll
 0000:00000000       .debug$S                   0000000180000000     sf_runtime:sf_runtime.dll
 0000:00000000       .debug$S                   0000000180000000     ucrt:api-ms-win-crt-heap-l1-1-0.dll
 0000:00000000       .debug$S                   0000000180000000     ucrt:api-ms-win-crt-heap-l1-1-0.dll
 0000:00000000       .debug$S                   0000000180000000     sf_runtime:sf_runtime.dll
 0000:00000000       .debug$S                   0000000180000000     sf_runtime:sf_runtime.dll
 0000:00000000       .debug$S                   0000000180000000     sf_runtime:sf_runtime.dll
 0000:00000000       .debug$S                   0000000180000000     sf_runtime:sf_runtime.dll
 0000:00000000       .debug$S                   0000000180000000     sf_runtime:sf_runtime.dll
 0000:00000000       .debug$S                   0000000180000000     sf_runtime:sf_runtime.dll
 0000:00000000       .debug$S                   0000000180000000     sf_runtime:sf_runtime.dll
 0000:00000000       .debug$S                   0000000180000000     sf_runtime:sf_runtime.dll
 0000:00000000       .debug$S                   0000000180000000     sf_runtime:sf_runtime.dll
 0000:00000000       .debug$S                   0000000180000000     sf_runtime:sf_runtime.dll
 0000:00000000       .debug$S                   0000000180000000     sf_runtime:sf_runtime.dll
 0000:00000000       .debug$S                   0000000180000000     sf_runtime:sf_runtime.dll
 0000:00000000       .debug$S                   0000000180000000     sf_runtime:sf_runtime.dll
 0000:00000000       .debug$S                   0000000180000000     sf_runtime:sf_runtime.dll
 0000:00000000       .debug$S                   0000000180000000     sf_runtime:sf_runtime.dll
 0000:00000000       .debug$S                   0000000180000000     sf_runtime:sf_runtime.dll
 0000:00000000       .debug$S                   0000000180000000     sf_runtime:sf_runtime.dll
 0000:00000000       .debug$S                   0000000180000000     sf_runtime:sf_runtime.dll
 0000:00000000       .debug$S                   0000000180000000     sf_runtime:sf_runtime.dll
 0000:00000000       .debug$S                   0000000180000000     sf_runtime:sf_runtime.dll
 0000:00000000       .debug$S                   0000000180000000     sf_runtime:sf_runtime.dll
 0000:00000000       .debug$S                   0000000180000000     sf_runtime:sf_runtime.dll
 0000:00000000       .debug$S                   0000000180000000     sf_runtime:sf_runtime.dll
 0000:00000000       .debug$S                   0000000180000000     sf_runtime:sf_runtime.dll
 0000:00000000       .debug$S                   0000000180000000     sf_runtime:sf_runtime.dll
 0000:00000000       .debug$S                   0000000180000000     sf_runtime:sf_runtime.dll
 0000:00000000       .debug$S                   0000000180000000     sf_runtime:sf_runtime.dll
 0000:00000000       .debug$S                   0000000180000000     sf_runtime:sf_runtime.dll
 0000:00000000       .debug$S                   0000000180000000     sf_runtime:sf_runtime.dll
 0000:00000000       .debug$S                   0000000180000000     sf_runtime:sf_runtime.dll
 0000:00000000       .debug$S                   0000000180000000     sf_runtime:sf_runtime.dll
 0000:00000000       .debug$S                   0000000180000000     sf_runtime:sf_runtime.dll
 0000:00000000       .debug$S                   0000000180000000     sf_runtime:sf_runtime.dll
 0000:00000000       .debug$S                   0000000180000000     sf_runtime:sf_runtime.dll
 0000:00000000       .debug$S                   0000000180000000     libmx:libmx.dll
 0000:00000000       .debug$S                   0000000180000000     libmx:libmx.dll
 0000:00000000       .debug$S                   0000000180000000     libmx:libmx.dll
 0000:00000000       .debug$S                   0000000180000000     libmx:libmx.dll
 0000:00000000       .debug$S                   0000000180000000     libmx:libmx.dll
 0000:00000000       .debug$S                   0000000180000000     libmx:libmx.dll
 0000:00000000       .debug$S                   0000000180000000     ucrt:api-ms-win-crt-runtime-l1-1-0.dll
 0000:00000000       .debug$S                   0000000180000000     libmx:libmx.dll
 0000:00000000       .debug$S                   0000000180000000     ucrt:api-ms-win-crt-runtime-l1-1-0.dll
 0000:00000000       .debug$S                   0000000180000000     libmx:libmx.dll
 0000:00000000       .debug$S                   0000000180000000     ucrt:api-ms-win-crt-runtime-l1-1-0.dll
 0000:00000000       .debug$S                   0000000180000000     libmx:libmx.dll
 0000:00000000       .debug$S                   0000000180000000     ucrt:api-ms-win-crt-runtime-l1-1-0.dll
 0000:00000000       .debug$S                   0000000180000000     libmx:libmx.dll
 0000:00000000       .debug$S                   0000000180000000     ucrt:api-ms-win-crt-runtime-l1-1-0.dll
 0000:00000000       .debug$S                   0000000180000000     libmx:libmx.dll
 0000:00000000       .debug$S                   0000000180000000     ucrt:api-ms-win-crt-runtime-l1-1-0.dll
 0000:00000000       .debug$S                   0000000180000000     libmx:libmx.dll
 0000:00000000       .debug$S                   0000000180000000     ucrt:api-ms-win-crt-runtime-l1-1-0.dll
 0000:00000000       .debug$S                   0000000180000000     libmx:libmx.dll
 0000:00000000       .debug$S                   0000000180000000     ucrt:api-ms-win-crt-runtime-l1-1-0.dll
 0000:00000000       .debug$S                   0000000180000000     libmx:libmx.dll
 0000:00000000       .debug$S                   0000000180000000     ucrt:api-ms-win-crt-runtime-l1-1-0.dll
 0000:00000000       .debug$S                   0000000180000000     libmx:libmx.dll
 0000:00000000       .debug$S                   0000000180000000     ucrt:api-ms-win-crt-runtime-l1-1-0.dll
 0000:00000000       .debug$S                   0000000180000000     libmx:libmx.dll
 0000:00000000       .debug$S                   0000000180000000     ucrt:api-ms-win-crt-runtime-l1-1-0.dll
 0000:00000000       .debug$S                   0000000180000000     libmx:libmx.dll
 0000:00000000       .debug$S                   0000000180000000     ucrt:api-ms-win-crt-runtime-l1-1-0.dll
 0000:00000000       .debug$S                   0000000180000000     libmx:libmx.dll
 0000:00000000       .debug$S                   0000000180000000     libmx:libmx.dll
 0000:00000000       .debug$S                   0000000180000000     libmx:libmx.dll
 0000:00000000       .debug$S                   0000000180000000     ucrt:api-ms-win-crt-stdio-l1-1-0.dll
 0000:00000000       .debug$S                   0000000180000000     libmex:libmex.dll
 0000:00000000       .debug$S                   0000000180000000     libmex:libmex.dll
 0000:00000000       .debug$S                   0000000180000000     libmex:libmex.dll
 0000:00000000       .debug$S                   0000000180000000     ucrt:api-ms-win-crt-string-l1-1-0.dll
 0000:00000000       .debug$S                   0000000180000000     sf_runtime:sf_runtime.dll
 0000:00000000       .debug$S                   0000000180000000     libmex:libmex.dll
 0000:00000000       .debug$S                   0000000180000000     sf_runtime:sf_runtime.dll
 0000:00000000       .debug$S                   0000000180000000     vcruntime:VCRUNTIME140.dll
 0000:00000000       .debug$S                   0000000180000000     libmex:libmex.dll
 0000:00000000       .debug$S                   0000000180000000     vcruntime:VCRUNTIME140.dll
 0000:00000000       .debug$S                   0000000180000000     sf_runtime:sf_runtime.dll
 0000:00000000       .debug$S                   0000000180000000     vcruntime:VCRUNTIME140.dll
 0000:00000000       .debug$S                   0000000180000000     libmex:libmex.dll
 0000:00000000       .debug$S                   0000000180000000     vcruntime:VCRUNTIME140.dll
 0000:00000000       .debug$S                   0000000180000000     sf_runtime:sf_runtime.dll
 0000:00000000       .debug$S                   0000000180000000     libmex:libmex.dll
 0000:00000000       .debug$S                   0000000180000000     sf_runtime:sf_runtime.dll
 0000:00000000       .debug$S                   0000000180000000     kernel32:KERNEL32.dll
 0000:00000000       .debug$S                   0000000180000000     sf_runtime:sf_runtime.dll
 0000:00000000       .debug$S                   0000000180000000     kernel32:KERNEL32.dll
 0000:00000000       .debug$S                   0000000180000000     sf_runtime:sf_runtime.dll
 0000:00000000       .debug$S                   0000000180000000     kernel32:KERNEL32.dll
 0000:00000000       .debug$S                   0000000180000000     sf_runtime:sf_runtime.dll
 0000:00000000       .debug$S                   0000000180000000     kernel32:KERNEL32.dll
 0000:00000000       .debug$S                   0000000180000000     sf_runtime:sf_runtime.dll
 0000:00000000       .debug$S                   0000000180000000     kernel32:KERNEL32.dll
 0000:00000000       .debug$S                   0000000180000000     libut:libut.dll
 0000:00000000       .debug$S                   0000000180000000     kernel32:KERNEL32.dll
 0000:00000000       .debug$S                   0000000180000000     sf_runtime:sf_runtime.dll
 0000:00000000       .debug$S                   0000000180000000     kernel32:KERNEL32.dll
 0000:00000000       .debug$S                   0000000180000000     libut:libut.dll
 0000:00000000       .debug$S                   0000000180000000     kernel32:KERNEL32.dll
 0000:00000000       .debug$S                   0000000180000000     sf_runtime:sf_runtime.dll
 0000:00000000       .debug$S                   0000000180000000     kernel32:KERNEL32.dll
 0000:00000000       .debug$S                   0000000180000000     sf_runtime:sf_runtime.dll
 0000:00000000       .debug$S                   0000000180000000     kernel32:KERNEL32.dll
 0000:00000000       .debug$S                   0000000180000000     sf_runtime:sf_runtime.dll
 0000:00000000       .debug$S                   0000000180000000     kernel32:KERNEL32.dll
 0000:00000000       .debug$S                   0000000180000000     libmwmathutil:libmwmathutil.dll
 0000:00000000       .debug$S                   0000000180000000     kernel32:KERNEL32.dll
 0000:00000000       .debug$S                   0000000180000000     sf_runtime:sf_runtime.dll
 0000:00000000       .debug$S                   0000000180000000     kernel32:KERNEL32.dll
 0000:00000000       .debug$S                   0000000180000000     sf_runtime:sf_runtime.dll
 0000:00000000       .debug$S                   0000000180000000     kernel32:KERNEL32.dll
 0000:00000000       .debug$S                   0000000180000000     sf_runtime:sf_runtime.dll
 0000:00000000       .debug$S                   0000000180000000     kernel32:KERNEL32.dll
 0000:00000000       .debug$S                   0000000180000000     sf_runtime:sf_runtime.dll
 0000:00000000       .debug$S                   0000000180000000     kernel32:KERNEL32.dll
 0000:00000000       .debug$S                   0000000180000000     sf_runtime:sf_runtime.dll
 0000:00000000       .debug$S                   0000000180000000     kernel32:KERNEL32.dll
 0000:00000000       .debug$S                   0000000180000000     sf_runtime:sf_runtime.dll
 0000:00000000       .debug$S                   0000000180000000     sf_runtime:sf_runtime.dll
 0000:00000000       .debug$S                   0000000180000000     sf_runtime:sf_runtime.dll
 0000:00000000       .debug$S                   0000000180000000     sf_runtime:sf_runtime.dll
 0000:00000000       .debug$S                   0000000180000000     sf_runtime:sf_runtime.dll
 0000:00000000       .debug$S                   0000000180000000     sf_runtime:sf_runtime.dll
 0000:00000000       .debug$S                   0000000180000000     sf_runtime:sf_runtime.dll
 0000:00000000       .debug$S                   0000000180000000     sf_runtime:sf_runtime.dll
 0000:00000000       .debug$S                   0000000180000000     sf_runtime:sf_runtime.dll
 0000:00000000       .debug$S                   0000000180000000     sf_runtime:sf_runtime.dll
 0000:00000000       .debug$S                   0000000180000000     sf_runtime:sf_runtime.dll
 0000:00000000       .debug$S                   0000000180000000     sf_runtime:sf_runtime.dll
 0000:00000000       .debug$S                   0000000180000000     sf_runtime:sf_runtime.dll
 0000:00000000       .debug$S                   0000000180000000     sf_runtime:sf_runtime.dll
 0000:00000000       .debug$S                   0000000180000000     sf_runtime:sf_runtime.dll
 0000:00000000       .debug$S                   0000000180000000     sf_runtime:sf_runtime.dll
 0000:00000000       .debug$S                   0000000180000000     sf_runtime:sf_runtime.dll
 0000:00000000       .debug$S                   0000000180000000     sf_runtime:sf_runtime.dll
 0000:00000000       .debug$S                   0000000180000000     sf_runtime:sf_runtime.dll
 0000:00000000       .debug$S                   0000000180000000     sf_runtime:sf_runtime.dll
 0000:00000000       .debug$S                   0000000180000000     sf_runtime:sf_runtime.dll
 0000:00000000       .debug$S                   0000000180000000     sf_runtime:sf_runtime.dll
 0000:00000000       .debug$S                   0000000180000000     sf_runtime:sf_runtime.dll
 0000:00000000       .debug$S                   0000000180000000     sf_runtime:sf_runtime.dll
 0000:00000000       .debug$S                   0000000180000000     sf_runtime:sf_runtime.dll
 0000:00000000       .debug$S                   0000000180000000     sf_runtime:sf_runtime.dll
 0000:00000000       .debug$S                   0000000180000000     sf_runtime:sf_runtime.dll
 0000:00000000       .debug$S                   0000000180000000     sf_runtime:sf_runtime.dll
 0000:00000000       .debug$S                   0000000180000000     sf_runtime:sf_runtime.dll
 0000:00000000       .debug$S                   0000000180000000     sf_runtime:sf_runtime.dll
 0000:00000000       .debug$S                   0000000180000000     sf_runtime:sf_runtime.dll
 0000:00000000       .debug$S                   0000000180000000     sf_runtime:sf_runtime.dll
 0000:00000000       .debug$S                   0000000180000000     sf_runtime:sf_runtime.dll
 0000:00000000       .debug$S                   0000000180000000     sf_runtime:sf_runtime.dll
 0001:000012c0       c1_DS402StateMachine       00000001800022c0 f   c1_modello_2017b_levaRetro_acc.obj
 0001:00003c80       $LN72                      0000000180004c80     c1_modello_2017b_levaRetro_acc.obj
 0001:00003cb0       c1_b_emlrt_marshallIn      0000000180004cb0 f   c1_modello_2017b_levaRetro_acc.obj
 0001:00003d20       c1_b_sf_marshallIn         0000000180004d20 f   c1_modello_2017b_levaRetro_acc.obj
 0001:00003de0       c1_b_sf_marshallOut        0000000180004de0 f   c1_modello_2017b_levaRetro_acc.obj
 0001:00003e50       c1_c_emlrt_marshallIn      0000000180004e50 f   c1_modello_2017b_levaRetro_acc.obj
 0001:00003eb0       c1_e_emlrt_marshallIn      0000000180004eb0 f   c1_modello_2017b_levaRetro_acc.obj
 0001:00003f50       c1_e_sf_marshallOut        0000000180004f50 f   c1_modello_2017b_levaRetro_acc.obj
 0001:00003fc0       c1_emlrt_marshallIn        0000000180004fc0 f   c1_modello_2017b_levaRetro_acc.obj
 0001:00004060       c1_enter_atomic_fault      0000000180005060 f   c1_modello_2017b_levaRetro_acc.obj
 0001:00004240       c1_enter_atomic_fault_reaction_active 0000000180005240 f   c1_modello_2017b_levaRetro_acc.obj
 0001:00004420       c1_enter_atomic_operation_enabled 0000000180005420 f   c1_modello_2017b_levaRetro_acc.obj
 0001:00004610       c1_enter_atomic_quick_stop_active 0000000180005610 f   c1_modello_2017b_levaRetro_acc.obj
 0001:00004800       c1_enter_atomic_ready_to_switch_on 0000000180005800 f   c1_modello_2017b_levaRetro_acc.obj
 0001:000049f0       c1_enter_atomic_switch_on_disabled 00000001800059f0 f   c1_modello_2017b_levaRetro_acc.obj
 0001:00004bd0       c1_enter_atomic_switched_on 0000000180005bd0 f   c1_modello_2017b_levaRetro_acc.obj
 0001:00004dc0       c1_exit_internal_DS402StateMachine 0000000180005dc0 f   c1_modello_2017b_levaRetro_acc.obj
 0001:0000534c       $LN16                      000000018000634c     c1_modello_2017b_levaRetro_acc.obj
 0001:00005380       c1_f_emlrt_marshallIn      0000000180006380 f   c1_modello_2017b_levaRetro_acc.obj
 0001:000053e0       c1_f_sf_marshallOut        00000001800063e0 f   c1_modello_2017b_levaRetro_acc.obj
 0001:00005450       c1_g_emlrt_marshallIn      0000000180006450 f   c1_modello_2017b_levaRetro_acc.obj
 0001:00005500       c1_h_emlrt_marshallIn      0000000180006500 f   c1_modello_2017b_levaRetro_acc.obj
 0001:00005580       c1_i_emlrt_marshallIn      0000000180006580 f   c1_modello_2017b_levaRetro_acc.obj
 0001:00005600       c1_init_sf_message_store_memory 0000000180006600 f   c1_modello_2017b_levaRetro_acc.obj
 0001:00005610       c1_j_emlrt_marshallIn      0000000180006610 f   c1_modello_2017b_levaRetro_acc.obj
 0001:00005680       c1_not_ready_to_switch_on  0000000180006680 f   c1_modello_2017b_levaRetro_acc.obj
 0001:00005c90       c1_operation_enabled       0000000180006c90 f   c1_modello_2017b_levaRetro_acc.obj
 0001:00006950       c1_quick_stop_active       0000000180007950 f   c1_modello_2017b_levaRetro_acc.obj
 0001:000070c0       c1_ready_to_switch_on      00000001800080c0 f   c1_modello_2017b_levaRetro_acc.obj
 0001:00007a90       c1_reset_fault_logic       0000000180008a90 f   c1_modello_2017b_levaRetro_acc.obj
 0001:00007f00       c1_set_sim_state_side_effects_c1_modello_2017b_levaRetro_acc 0000000180008f00 f   c1_modello_2017b_levaRetro_acc.obj
 0001:00007f20       c1_sf_marshallIn           0000000180008f20 f   c1_modello_2017b_levaRetro_acc.obj
 0001:00007ff0       c1_sf_marshallOut          0000000180008ff0 f   c1_modello_2017b_levaRetro_acc.obj
 0001:00008060       c1_switch_on_disabled      0000000180009060 f   c1_modello_2017b_levaRetro_acc.obj
 0001:00008a30       c1_switched_on             0000000180009a30 f   c1_modello_2017b_levaRetro_acc.obj
 0001:000096f0       c1_update_debugger_state_c1_modello_2017b_levaRetro_acc 000000018000a6f0 f   c1_modello_2017b_levaRetro_acc.obj
 0001:00009d90       chart_debug_initialization 000000018000ad90 f   c1_modello_2017b_levaRetro_acc.obj
 0001:0000d200       chart_debug_initialize_data_addresses 000000018000e200 f   c1_modello_2017b_levaRetro_acc.obj
 0001:0000d420       disable_c1_modello_2017b_levaRetro_acc 000000018000e420 f   c1_modello_2017b_levaRetro_acc.obj
 0001:0000d440       enable_c1_modello_2017b_levaRetro_acc 000000018000e440 f   c1_modello_2017b_levaRetro_acc.obj
 0001:0000d460       ext_mode_exec_c1_modello_2017b_levaRetro_acc 000000018000e460 f   c1_modello_2017b_levaRetro_acc.obj
 0001:0000d470       finalize_c1_modello_2017b_levaRetro_acc 000000018000e470 f   c1_modello_2017b_levaRetro_acc.obj
 0001:0000d480       get_sim_state_c1_modello_2017b_levaRetro_acc 000000018000e480 f   c1_modello_2017b_levaRetro_acc.obj
 0001:0000d7c0       initSimStructsc1_modello_2017b_levaRetro_acc 000000018000e7c0 f   c1_modello_2017b_levaRetro_acc.obj
 0001:0000d7d0       init_dsm_address_info      000000018000e7d0 f   c1_modello_2017b_levaRetro_acc.obj
 0001:0000d7e0       init_script_number_translation 000000018000e7e0 f   c1_modello_2017b_levaRetro_acc.obj
 0001:0000d7f0       init_simulink_io_address   000000018000e7f0 f   c1_modello_2017b_levaRetro_acc.obj
 0001:0000d900       initialize_c1_modello_2017b_levaRetro_acc 000000018000e900 f   c1_modello_2017b_levaRetro_acc.obj
 0001:0000d970       initialize_params_c1_modello_2017b_levaRetro_acc 000000018000e970 f   c1_modello_2017b_levaRetro_acc.obj
 0001:0000d980       mdlProcessParameters_c1_modello_2017b_levaRetro_acc 000000018000e980 f   c1_modello_2017b_levaRetro_acc.obj
 0001:0000da10       mdlRTW_c1_modello_2017b_levaRetro_acc 000000018000ea10 f   c1_modello_2017b_levaRetro_acc.obj
 0001:0000da50       mdlSetWorkWidths_c1_modello_2017b_levaRetro_acc 000000018000ea50 f   c1_modello_2017b_levaRetro_acc.obj
 0001:0000de90       mdlStart_c1_modello_2017b_levaRetro_acc 000000018000ee90 f   c1_modello_2017b_levaRetro_acc.obj
 0001:0000e010       mdl_start_c1_modello_2017b_levaRetro_acc 000000018000f010 f   c1_modello_2017b_levaRetro_acc.obj
 0001:0000e020       set_sim_state_c1_modello_2017b_levaRetro_acc 000000018000f020 f   c1_modello_2017b_levaRetro_acc.obj
 0001:0000eee0       sf_check_dwork_consistency 000000018000fee0 f   c1_modello_2017b_levaRetro_acc.obj
 0001:0000efc0       sf_gateway_c1_modello_2017b_levaRetro_acc 000000018000ffc0 f   c1_modello_2017b_levaRetro_acc.obj
 0001:0000f6e0       sf_get_hover_data_for_msg  00000001800106e0 f   c1_modello_2017b_levaRetro_acc.obj
 0001:0000f6f0       sf_get_instance_specialization 00000001800106f0 f   c1_modello_2017b_levaRetro_acc.obj
 0001:0000f700       sf_get_sfun_dwork_checksum 0000000180010700 f   c1_modello_2017b_levaRetro_acc.obj
 0001:0000f710       sf_get_sim_state_info_c1_modello_2017b_levaRetro_acc 0000000180010710 f   c1_modello_2017b_levaRetro_acc.obj
 0001:0000f820       sf_opaque_disable_c1_modello_2017b_levaRetro_acc 0000000180010820 f   c1_modello_2017b_levaRetro_acc.obj
 0001:0000f840       sf_opaque_enable_c1_modello_2017b_levaRetro_acc 0000000180010840 f   c1_modello_2017b_levaRetro_acc.obj
 0001:0000f860       sf_opaque_ext_mode_exec_c1_modello_2017b_levaRetro_acc 0000000180010860 f   c1_modello_2017b_levaRetro_acc.obj
 0001:0000f870       sf_opaque_gateway_c1_modello_2017b_levaRetro_acc 0000000180010870 f   c1_modello_2017b_levaRetro_acc.obj
 0001:0000f880       sf_opaque_get_hover_data_for_msg 0000000180010880 f   c1_modello_2017b_levaRetro_acc.obj
 0001:0000f890       sf_opaque_get_sim_state_c1_modello_2017b_levaRetro_acc 0000000180010890 f   c1_modello_2017b_levaRetro_acc.obj
 0001:0000f8b0       sf_opaque_initialize_c1_modello_2017b_levaRetro_acc 00000001800108b0 f   c1_modello_2017b_levaRetro_acc.obj
 0001:0000f8e0       sf_opaque_set_sim_state_c1_modello_2017b_levaRetro_acc 00000001800108e0 f   c1_modello_2017b_levaRetro_acc.obj
 0001:0000f900       sf_opaque_terminate_c1_modello_2017b_levaRetro_acc 0000000180010900 f   c1_modello_2017b_levaRetro_acc.obj
 0001:0000f980       sf_set_sfun_dwork_info     0000000180010980 f   c1_modello_2017b_levaRetro_acc.obj
 0001:0000f9b0       c2_INIT                    00000001800109b0 f   c2_modello_2017b_levaRetro_acc.obj
 0001:00010180       c2_OPERATIONAL             0000000180011180 f   c2_modello_2017b_levaRetro_acc.obj
 0001:00010960       c2_PRE_OP                  0000000180011960 f   c2_modello_2017b_levaRetro_acc.obj
 0001:00011700       c2_b_emlrt_marshallIn      0000000180012700 f   c2_modello_2017b_levaRetro_acc.obj
 0001:00011770       c2_b_sf_marshallIn         0000000180012770 f   c2_modello_2017b_levaRetro_acc.obj
 0001:00011830       c2_b_sf_marshallOut        0000000180012830 f   c2_modello_2017b_levaRetro_acc.obj
 0001:000118a0       c2_c_emlrt_marshallIn      00000001800128a0 f   c2_modello_2017b_levaRetro_acc.obj
 0001:00011900       c2_c_sf_marshallOut        0000000180012900 f   c2_modello_2017b_levaRetro_acc.obj
 0001:00011970       c2_chartstep_c2_modello_2017b_levaRetro_acc 0000000180012970 f   c2_modello_2017b_levaRetro_acc.obj
 0001:00013b30       c2_d_sf_marshallOut        0000000180014b30 f   c2_modello_2017b_levaRetro_acc.obj
 0001:00013ba0       c2_e_emlrt_marshallIn      0000000180014ba0 f   c2_modello_2017b_levaRetro_acc.obj
 0001:00013c40       c2_emlrt_marshallIn        0000000180014c40 f   c2_modello_2017b_levaRetro_acc.obj
 0001:00013ce0       c2_f_emlrt_marshallIn      0000000180014ce0 f   c2_modello_2017b_levaRetro_acc.obj
 0001:00013d40       c2_g_emlrt_marshallIn      0000000180014d40 f   c2_modello_2017b_levaRetro_acc.obj
 0001:00013df0       c2_h_emlrt_marshallIn      0000000180014df0 f   c2_modello_2017b_levaRetro_acc.obj
 0001:00013e70       c2_i_emlrt_marshallIn      0000000180014e70 f   c2_modello_2017b_levaRetro_acc.obj
 0001:00013ef0       c2_init_sf_message_store_memory 0000000180014ef0 f   c2_modello_2017b_levaRetro_acc.obj
 0001:00013f00       c2_j_emlrt_marshallIn      0000000180014f00 f   c2_modello_2017b_levaRetro_acc.obj
 0001:00013f70       c2_set_sim_state_side_effects_c2_modello_2017b_levaRetro_acc 0000000180014f70 f   c2_modello_2017b_levaRetro_acc.obj
 0001:00013f90       c2_sf_marshallIn           0000000180014f90 f   c2_modello_2017b_levaRetro_acc.obj
 0001:00014060       c2_sf_marshallOut          0000000180015060 f   c2_modello_2017b_levaRetro_acc.obj
 0001:000140d0       c2_update_debugger_state_c2_modello_2017b_levaRetro_acc 00000001800150d0 f   c2_modello_2017b_levaRetro_acc.obj
 0001:00014460       chart_debug_initialization 0000000180015460 f   c2_modello_2017b_levaRetro_acc.obj
 0001:00016040       chart_debug_initialize_data_addresses 0000000180017040 f   c2_modello_2017b_levaRetro_acc.obj
 0001:00016170       disable_c2_modello_2017b_levaRetro_acc 0000000180017170 f   c2_modello_2017b_levaRetro_acc.obj
 0001:00016190       enable_c2_modello_2017b_levaRetro_acc 0000000180017190 f   c2_modello_2017b_levaRetro_acc.obj
 0001:000161b0       ext_mode_exec_c2_modello_2017b_levaRetro_acc 00000001800171b0 f   c2_modello_2017b_levaRetro_acc.obj
 0001:000161c0       finalize_c2_modello_2017b_levaRetro_acc 00000001800171c0 f   c2_modello_2017b_levaRetro_acc.obj
 0001:000161d0       get_sim_state_c2_modello_2017b_levaRetro_acc 00000001800171d0 f   c2_modello_2017b_levaRetro_acc.obj
 0001:000163f0       initSimStructsc2_modello_2017b_levaRetro_acc 00000001800173f0 f   c2_modello_2017b_levaRetro_acc.obj
 0001:00016400       init_dsm_address_info      0000000180017400 f   c2_modello_2017b_levaRetro_acc.obj
 0001:00016410       init_script_number_translation 0000000180017410 f   c2_modello_2017b_levaRetro_acc.obj
 0001:00016420       init_simulink_io_address   0000000180017420 f   c2_modello_2017b_levaRetro_acc.obj
 0001:000164d0       initialize_c2_modello_2017b_levaRetro_acc 00000001800174d0 f   c2_modello_2017b_levaRetro_acc.obj
 0001:00016540       initialize_params_c2_modello_2017b_levaRetro_acc 0000000180017540 f   c2_modello_2017b_levaRetro_acc.obj
 0001:00016550       mdlProcessParameters_c2_modello_2017b_levaRetro_acc 0000000180017550 f   c2_modello_2017b_levaRetro_acc.obj
 0001:000165e0       mdlRTW_c2_modello_2017b_levaRetro_acc 00000001800175e0 f   c2_modello_2017b_levaRetro_acc.obj
 0001:00016620       mdlSetWorkWidths_c2_modello_2017b_levaRetro_acc 0000000180017620 f   c2_modello_2017b_levaRetro_acc.obj
 0001:000169c0       mdlStart_c2_modello_2017b_levaRetro_acc 00000001800179c0 f   c2_modello_2017b_levaRetro_acc.obj
 0001:00016b40       mdl_start_c2_modello_2017b_levaRetro_acc 0000000180017b40 f   c2_modello_2017b_levaRetro_acc.obj
 0001:00016b50       set_sim_state_c2_modello_2017b_levaRetro_acc 0000000180017b50 f   c2_modello_2017b_levaRetro_acc.obj
 0001:000175f0       sf_check_dwork_consistency 00000001800185f0 f   c2_modello_2017b_levaRetro_acc.obj
 0001:000176d0       sf_gateway_c2_modello_2017b_levaRetro_acc 00000001800186d0 f   c2_modello_2017b_levaRetro_acc.obj
 0001:00017840       sf_get_hover_data_for_msg  0000000180018840 f   c2_modello_2017b_levaRetro_acc.obj
 0001:00017850       sf_get_instance_specialization 0000000180018850 f   c2_modello_2017b_levaRetro_acc.obj
 0001:00017860       sf_get_sfun_dwork_checksum 0000000180018860 f   c2_modello_2017b_levaRetro_acc.obj
 0001:00017870       sf_get_sim_state_info_c2_modello_2017b_levaRetro_acc 0000000180018870 f   c2_modello_2017b_levaRetro_acc.obj
 0001:00017980       sf_opaque_disable_c2_modello_2017b_levaRetro_acc 0000000180018980 f   c2_modello_2017b_levaRetro_acc.obj
 0001:000179a0       sf_opaque_enable_c2_modello_2017b_levaRetro_acc 00000001800189a0 f   c2_modello_2017b_levaRetro_acc.obj
 0001:000179c0       sf_opaque_ext_mode_exec_c2_modello_2017b_levaRetro_acc 00000001800189c0 f   c2_modello_2017b_levaRetro_acc.obj
 0001:000179d0       sf_opaque_gateway_c2_modello_2017b_levaRetro_acc 00000001800189d0 f   c2_modello_2017b_levaRetro_acc.obj
 0001:000179e0       sf_opaque_get_hover_data_for_msg 00000001800189e0 f   c2_modello_2017b_levaRetro_acc.obj
 0001:000179f0       sf_opaque_get_sim_state_c2_modello_2017b_levaRetro_acc 00000001800189f0 f   c2_modello_2017b_levaRetro_acc.obj
 0001:00017a10       sf_opaque_initialize_c2_modello_2017b_levaRetro_acc 0000000180018a10 f   c2_modello_2017b_levaRetro_acc.obj
 0001:00017a90       sf_opaque_set_sim_state_c2_modello_2017b_levaRetro_acc 0000000180018a90 f   c2_modello_2017b_levaRetro_acc.obj
 0001:00017ab0       sf_opaque_terminate_c2_modello_2017b_levaRetro_acc 0000000180018ab0 f   c2_modello_2017b_levaRetro_acc.obj
 0001:00017b30       sf_set_sfun_dwork_info     0000000180018b30 f   c2_modello_2017b_levaRetro_acc.obj
 0001:00017b60       c3_DS402StateMachine       0000000180018b60 f   c3_modello_2017b_levaRetro_acc.obj
 0001:0001a520       $LN72                      000000018001b520     c3_modello_2017b_levaRetro_acc.obj
 0001:0001a550       c3_b_emlrt_marshallIn      000000018001b550 f   c3_modello_2017b_levaRetro_acc.obj
 0001:0001a5c0       c3_b_sf_marshallIn         000000018001b5c0 f   c3_modello_2017b_levaRetro_acc.obj
 0001:0001a680       c3_b_sf_marshallOut        000000018001b680 f   c3_modello_2017b_levaRetro_acc.obj
 0001:0001a6f0       c3_c_emlrt_marshallIn      000000018001b6f0 f   c3_modello_2017b_levaRetro_acc.obj
 0001:0001a750       c3_e_emlrt_marshallIn      000000018001b750 f   c3_modello_2017b_levaRetro_acc.obj
 0001:0001a7f0       c3_e_sf_marshallOut        000000018001b7f0 f   c3_modello_2017b_levaRetro_acc.obj
 0001:0001a860       c3_emlrt_marshallIn        000000018001b860 f   c3_modello_2017b_levaRetro_acc.obj
 0001:0001a900       c3_enter_atomic_fault      000000018001b900 f   c3_modello_2017b_levaRetro_acc.obj
 0001:0001aae0       c3_enter_atomic_fault_reaction_active 000000018001bae0 f   c3_modello_2017b_levaRetro_acc.obj
 0001:0001acc0       c3_enter_atomic_operation_enabled 000000018001bcc0 f   c3_modello_2017b_levaRetro_acc.obj
 0001:0001aeb0       c3_enter_atomic_quick_stop_active 000000018001beb0 f   c3_modello_2017b_levaRetro_acc.obj
 0001:0001b0a0       c3_enter_atomic_ready_to_switch_on 000000018001c0a0 f   c3_modello_2017b_levaRetro_acc.obj
 0001:0001b290       c3_enter_atomic_switch_on_disabled 000000018001c290 f   c3_modello_2017b_levaRetro_acc.obj
 0001:0001b470       c3_enter_atomic_switched_on 000000018001c470 f   c3_modello_2017b_levaRetro_acc.obj
 0001:0001b660       c3_exit_internal_DS402StateMachine 000000018001c660 f   c3_modello_2017b_levaRetro_acc.obj
 0001:0001bbec       $LN16                      000000018001cbec     c3_modello_2017b_levaRetro_acc.obj
 0001:0001bc20       c3_f_emlrt_marshallIn      000000018001cc20 f   c3_modello_2017b_levaRetro_acc.obj
 0001:0001bc80       c3_f_sf_marshallOut        000000018001cc80 f   c3_modello_2017b_levaRetro_acc.obj
 0001:0001bcf0       c3_g_emlrt_marshallIn      000000018001ccf0 f   c3_modello_2017b_levaRetro_acc.obj
 0001:0001bda0       c3_h_emlrt_marshallIn      000000018001cda0 f   c3_modello_2017b_levaRetro_acc.obj
 0001:0001be20       c3_i_emlrt_marshallIn      000000018001ce20 f   c3_modello_2017b_levaRetro_acc.obj
 0001:0001bea0       c3_init_sf_message_store_memory 000000018001cea0 f   c3_modello_2017b_levaRetro_acc.obj
 0001:0001beb0       c3_j_emlrt_marshallIn      000000018001ceb0 f   c3_modello_2017b_levaRetro_acc.obj
 0001:0001bf20       c3_not_ready_to_switch_on  000000018001cf20 f   c3_modello_2017b_levaRetro_acc.obj
 0001:0001c530       c3_operation_enabled       000000018001d530 f   c3_modello_2017b_levaRetro_acc.obj
 0001:0001d1f0       c3_quick_stop_active       000000018001e1f0 f   c3_modello_2017b_levaRetro_acc.obj
 0001:0001d960       c3_ready_to_switch_on      000000018001e960 f   c3_modello_2017b_levaRetro_acc.obj
 0001:0001e330       c3_reset_fault_logic       000000018001f330 f   c3_modello_2017b_levaRetro_acc.obj
 0001:0001e7a0       c3_set_sim_state_side_effects_c3_modello_2017b_levaRetro_acc 000000018001f7a0 f   c3_modello_2017b_levaRetro_acc.obj
 0001:0001e7c0       c3_sf_marshallIn           000000018001f7c0 f   c3_modello_2017b_levaRetro_acc.obj
 0001:0001e890       c3_sf_marshallOut          000000018001f890 f   c3_modello_2017b_levaRetro_acc.obj
 0001:0001e900       c3_switch_on_disabled      000000018001f900 f   c3_modello_2017b_levaRetro_acc.obj
 0001:0001f2d0       c3_switched_on             00000001800202d0 f   c3_modello_2017b_levaRetro_acc.obj
 0001:0001ff90       c3_update_debugger_state_c3_modello_2017b_levaRetro_acc 0000000180020f90 f   c3_modello_2017b_levaRetro_acc.obj
 0001:00020630       chart_debug_initialization 0000000180021630 f   c3_modello_2017b_levaRetro_acc.obj
 0001:00023aa0       chart_debug_initialize_data_addresses 0000000180024aa0 f   c3_modello_2017b_levaRetro_acc.obj
 0001:00023cc0       disable_c3_modello_2017b_levaRetro_acc 0000000180024cc0 f   c3_modello_2017b_levaRetro_acc.obj
 0001:00023ce0       enable_c3_modello_2017b_levaRetro_acc 0000000180024ce0 f   c3_modello_2017b_levaRetro_acc.obj
 0001:00023d00       ext_mode_exec_c3_modello_2017b_levaRetro_acc 0000000180024d00 f   c3_modello_2017b_levaRetro_acc.obj
 0001:00023d10       finalize_c3_modello_2017b_levaRetro_acc 0000000180024d10 f   c3_modello_2017b_levaRetro_acc.obj
 0001:00023d20       get_sim_state_c3_modello_2017b_levaRetro_acc 0000000180024d20 f   c3_modello_2017b_levaRetro_acc.obj
 0001:00024060       initSimStructsc3_modello_2017b_levaRetro_acc 0000000180025060 f   c3_modello_2017b_levaRetro_acc.obj
 0001:00024070       init_dsm_address_info      0000000180025070 f   c3_modello_2017b_levaRetro_acc.obj
 0001:00024080       init_script_number_translation 0000000180025080 f   c3_modello_2017b_levaRetro_acc.obj
 0001:00024090       init_simulink_io_address   0000000180025090 f   c3_modello_2017b_levaRetro_acc.obj
 0001:000241a0       initialize_c3_modello_2017b_levaRetro_acc 00000001800251a0 f   c3_modello_2017b_levaRetro_acc.obj
 0001:00024210       initialize_params_c3_modello_2017b_levaRetro_acc 0000000180025210 f   c3_modello_2017b_levaRetro_acc.obj
 0001:00024220       mdlProcessParameters_c3_modello_2017b_levaRetro_acc 0000000180025220 f   c3_modello_2017b_levaRetro_acc.obj
 0001:000242b0       mdlRTW_c3_modello_2017b_levaRetro_acc 00000001800252b0 f   c3_modello_2017b_levaRetro_acc.obj
 0001:000242f0       mdlSetWorkWidths_c3_modello_2017b_levaRetro_acc 00000001800252f0 f   c3_modello_2017b_levaRetro_acc.obj
 0001:00024730       mdlStart_c3_modello_2017b_levaRetro_acc 0000000180025730 f   c3_modello_2017b_levaRetro_acc.obj
 0001:000248b0       mdl_start_c3_modello_2017b_levaRetro_acc 00000001800258b0 f   c3_modello_2017b_levaRetro_acc.obj
 0001:000248c0       set_sim_state_c3_modello_2017b_levaRetro_acc 00000001800258c0 f   c3_modello_2017b_levaRetro_acc.obj
 0001:00025780       sf_check_dwork_consistency 0000000180026780 f   c3_modello_2017b_levaRetro_acc.obj
 0001:00025860       sf_gateway_c3_modello_2017b_levaRetro_acc 0000000180026860 f   c3_modello_2017b_levaRetro_acc.obj
 0001:00025f90       sf_get_hover_data_for_msg  0000000180026f90 f   c3_modello_2017b_levaRetro_acc.obj
 0001:00025fa0       sf_get_instance_specialization 0000000180026fa0 f   c3_modello_2017b_levaRetro_acc.obj
 0001:00025fb0       sf_get_sfun_dwork_checksum 0000000180026fb0 f   c3_modello_2017b_levaRetro_acc.obj
 0001:00025fc0       sf_get_sim_state_info_c3_modello_2017b_levaRetro_acc 0000000180026fc0 f   c3_modello_2017b_levaRetro_acc.obj
 0001:000260d0       sf_opaque_disable_c3_modello_2017b_levaRetro_acc 00000001800270d0 f   c3_modello_2017b_levaRetro_acc.obj
 0001:000260f0       sf_opaque_enable_c3_modello_2017b_levaRetro_acc 00000001800270f0 f   c3_modello_2017b_levaRetro_acc.obj
 0001:00026110       sf_opaque_ext_mode_exec_c3_modello_2017b_levaRetro_acc 0000000180027110 f   c3_modello_2017b_levaRetro_acc.obj
 0001:00026120       sf_opaque_gateway_c3_modello_2017b_levaRetro_acc 0000000180027120 f   c3_modello_2017b_levaRetro_acc.obj
 0001:00026130       sf_opaque_get_hover_data_for_msg 0000000180027130 f   c3_modello_2017b_levaRetro_acc.obj
 0001:00026140       sf_opaque_get_sim_state_c3_modello_2017b_levaRetro_acc 0000000180027140 f   c3_modello_2017b_levaRetro_acc.obj
 0001:00026160       sf_opaque_initialize_c3_modello_2017b_levaRetro_acc 0000000180027160 f   c3_modello_2017b_levaRetro_acc.obj
 0001:00026190       sf_opaque_set_sim_state_c3_modello_2017b_levaRetro_acc 0000000180027190 f   c3_modello_2017b_levaRetro_acc.obj
 0001:000261b0       sf_opaque_terminate_c3_modello_2017b_levaRetro_acc 00000001800271b0 f   c3_modello_2017b_levaRetro_acc.obj
 0001:00026230       sf_set_sfun_dwork_info     0000000180027230 f   c3_modello_2017b_levaRetro_acc.obj
 0001:00026260       c27_ACTIVATE_DRIVES        0000000180027260 f   c27_modello_2017b_levaRetro_acc.obj
 0001:00026930       c27_DRIVES_ACTIVE          0000000180027930 f   c27_modello_2017b_levaRetro_acc.obj
 0001:00026e80       c27_b_emlrt_marshallIn     0000000180027e80 f   c27_modello_2017b_levaRetro_acc.obj
 0001:00026ef0       c27_b_sf_marshallIn        0000000180027ef0 f   c27_modello_2017b_levaRetro_acc.obj
 0001:00026fb0       c27_b_sf_marshallOut       0000000180027fb0 f   c27_modello_2017b_levaRetro_acc.obj
 0001:00027020       c27_c_emlrt_marshallIn     0000000180028020 f   c27_modello_2017b_levaRetro_acc.obj
 0001:00027080       c27_chartstep_c27_modello_2017b_levaRetro_acc 0000000180028080 f   c27_modello_2017b_levaRetro_acc.obj
 0001:00029574       $LN44                      000000018002a574     c27_modello_2017b_levaRetro_acc.obj
 0001:000295a0       c27_d_sf_marshallOut       000000018002a5a0 f   c27_modello_2017b_levaRetro_acc.obj
 0001:00029610       c27_e_emlrt_marshallIn     000000018002a610 f   c27_modello_2017b_levaRetro_acc.obj
 0001:000296b0       c27_emlrt_marshallIn       000000018002a6b0 f   c27_modello_2017b_levaRetro_acc.obj
 0001:00029750       c27_f_emlrt_marshallIn     000000018002a750 f   c27_modello_2017b_levaRetro_acc.obj
 0001:000297b0       c27_g_emlrt_marshallIn     000000018002a7b0 f   c27_modello_2017b_levaRetro_acc.obj
 0001:00029890       c27_h_emlrt_marshallIn     000000018002a890 f   c27_modello_2017b_levaRetro_acc.obj
 0001:00029930       c27_i_emlrt_marshallIn     000000018002a930 f   c27_modello_2017b_levaRetro_acc.obj
 0001:000299b0       c27_init_sf_message_store_memory 000000018002a9b0 f   c27_modello_2017b_levaRetro_acc.obj
 0001:000299c0       c27_j_emlrt_marshallIn     000000018002a9c0 f   c27_modello_2017b_levaRetro_acc.obj
 0001:00029a30       c27_set_sim_state_side_effects_c27_modello_2017b_levaRetro_acc 000000018002aa30 f   c27_modello_2017b_levaRetro_acc.obj
 0001:00029a50       c27_sf_marshallIn          000000018002aa50 f   c27_modello_2017b_levaRetro_acc.obj
 0001:00029b20       c27_sf_marshallOut         000000018002ab20 f   c27_modello_2017b_levaRetro_acc.obj
 0001:00029b90       c27_update_debugger_state_c27_modello_2017b_levaRetro_acc 000000018002ab90 f   c27_modello_2017b_levaRetro_acc.obj
 0001:0002a0b0       chart_debug_initialization 000000018002b0b0 f   c27_modello_2017b_levaRetro_acc.obj
 0001:0002bc30       chart_debug_initialize_data_addresses 000000018002cc30 f   c27_modello_2017b_levaRetro_acc.obj
 0001:0002bef0       disable_c27_modello_2017b_levaRetro_acc 000000018002cef0 f   c27_modello_2017b_levaRetro_acc.obj
 0001:0002bf10       enable_c27_modello_2017b_levaRetro_acc 000000018002cf10 f   c27_modello_2017b_levaRetro_acc.obj
 0001:0002bf30       ext_mode_exec_c27_modello_2017b_levaRetro_acc 000000018002cf30 f   c27_modello_2017b_levaRetro_acc.obj
 0001:0002bf40       finalize_c27_modello_2017b_levaRetro_acc 000000018002cf40 f   c27_modello_2017b_levaRetro_acc.obj
 0001:0002bf50       get_sim_state_c27_modello_2017b_levaRetro_acc 000000018002cf50 f   c27_modello_2017b_levaRetro_acc.obj
 0001:0002c2e0       initSimStructsc27_modello_2017b_levaRetro_acc 000000018002d2e0 f   c27_modello_2017b_levaRetro_acc.obj
 0001:0002c2f0       init_dsm_address_info      000000018002d2f0 f   c27_modello_2017b_levaRetro_acc.obj
 0001:0002c300       init_script_number_translation 000000018002d300 f   c27_modello_2017b_levaRetro_acc.obj
 0001:0002c310       init_simulink_io_address   000000018002d310 f   c27_modello_2017b_levaRetro_acc.obj
 0001:0002c440       initialize_c27_modello_2017b_levaRetro_acc 000000018002d440 f   c27_modello_2017b_levaRetro_acc.obj
 0001:0002c4b0       initialize_params_c27_modello_2017b_levaRetro_acc 000000018002d4b0 f   c27_modello_2017b_levaRetro_acc.obj
 0001:0002c4c0       mdlProcessParameters_c27_modello_2017b_levaRetro_acc 000000018002d4c0 f   c27_modello_2017b_levaRetro_acc.obj
 0001:0002c550       mdlRTW_c27_modello_2017b_levaRetro_acc 000000018002d550 f   c27_modello_2017b_levaRetro_acc.obj
 0001:0002c590       mdlSetWorkWidths_c27_modello_2017b_levaRetro_acc 000000018002d590 f   c27_modello_2017b_levaRetro_acc.obj
 0001:0002ca20       mdlStart_c27_modello_2017b_levaRetro_acc 000000018002da20 f   c27_modello_2017b_levaRetro_acc.obj
 0001:0002cba0       mdl_start_c27_modello_2017b_levaRetro_acc 000000018002dba0 f   c27_modello_2017b_levaRetro_acc.obj
 0001:0002cbb0       set_sim_state_c27_modello_2017b_levaRetro_acc 000000018002dbb0 f   c27_modello_2017b_levaRetro_acc.obj
 0001:0002dd80       sf_check_dwork_consistency 000000018002ed80 f   c27_modello_2017b_levaRetro_acc.obj
 0001:0002de60       sf_gateway_c27_modello_2017b_levaRetro_acc 000000018002ee60 f   c27_modello_2017b_levaRetro_acc.obj
 0001:0002e070       sf_get_hover_data_for_msg  000000018002f070 f   c27_modello_2017b_levaRetro_acc.obj
 0001:0002e080       sf_get_instance_specialization 000000018002f080 f   c27_modello_2017b_levaRetro_acc.obj
 0001:0002e090       sf_get_sfun_dwork_checksum 000000018002f090 f   c27_modello_2017b_levaRetro_acc.obj
 0001:0002e0a0       sf_get_sim_state_info_c27_modello_2017b_levaRetro_acc 000000018002f0a0 f   c27_modello_2017b_levaRetro_acc.obj
 0001:0002e1b0       sf_opaque_disable_c27_modello_2017b_levaRetro_acc 000000018002f1b0 f   c27_modello_2017b_levaRetro_acc.obj
 0001:0002e1d0       sf_opaque_enable_c27_modello_2017b_levaRetro_acc 000000018002f1d0 f   c27_modello_2017b_levaRetro_acc.obj
 0001:0002e1f0       sf_opaque_ext_mode_exec_c27_modello_2017b_levaRetro_acc 000000018002f1f0 f   c27_modello_2017b_levaRetro_acc.obj
 0001:0002e200       sf_opaque_gateway_c27_modello_2017b_levaRetro_acc 000000018002f200 f   c27_modello_2017b_levaRetro_acc.obj
 0001:0002e210       sf_opaque_get_hover_data_for_msg 000000018002f210 f   c27_modello_2017b_levaRetro_acc.obj
 0001:0002e220       sf_opaque_get_sim_state_c27_modello_2017b_levaRetro_acc 000000018002f220 f   c27_modello_2017b_levaRetro_acc.obj
 0001:0002e240       sf_opaque_initialize_c27_modello_2017b_levaRetro_acc 000000018002f240 f   c27_modello_2017b_levaRetro_acc.obj
 0001:0002e2c0       sf_opaque_set_sim_state_c27_modello_2017b_levaRetro_acc 000000018002f2c0 f   c27_modello_2017b_levaRetro_acc.obj
 0001:0002e2e0       sf_opaque_terminate_c27_modello_2017b_levaRetro_acc 000000018002f2e0 f   c27_modello_2017b_levaRetro_acc.obj
 0001:0002e360       sf_set_sfun_dwork_info     000000018002f360 f   c27_modello_2017b_levaRetro_acc.obj
 0001:0002e390       c52_asse_x_dyn             000000018002f390 f   c52_modello_2017b_levaRetro_acc.obj
 0001:00031f20       $LN88                      0000000180032f20     c52_modello_2017b_levaRetro_acc.obj
 0001:00031f40       c52_b_emlrt_marshallIn     0000000180032f40 f   c52_modello_2017b_levaRetro_acc.obj
 0001:00031fb0       c52_d_emlrt_marshallIn     0000000180032fb0 f   c52_modello_2017b_levaRetro_acc.obj
 0001:00032050       c52_d_sf_marshallIn        0000000180033050 f   c52_modello_2017b_levaRetro_acc.obj
 0001:000321e0       c52_d_sf_marshallOut       00000001800331e0 f   c52_modello_2017b_levaRetro_acc.obj
 0001:00032250       c52_e_emlrt_marshallIn     0000000180033250 f   c52_modello_2017b_levaRetro_acc.obj
 0001:000322b0       c52_e_sf_marshallOut       00000001800332b0 f   c52_modello_2017b_levaRetro_acc.obj
 0001:00032390       c52_emlrt_marshallIn       0000000180033390 f   c52_modello_2017b_levaRetro_acc.obj
 0001:00032430       c52_exit_internal_asse_x_dyn 0000000180033430 f   c52_modello_2017b_levaRetro_acc.obj
 0001:000328bc       $LN14                      00000001800338bc     c52_modello_2017b_levaRetro_acc.obj
 0001:000328e0       c52_f_emlrt_marshallIn     00000001800338e0 f   c52_modello_2017b_levaRetro_acc.obj
 0001:000329d0       c52_g_emlrt_marshallIn     00000001800339d0 f   c52_modello_2017b_levaRetro_acc.obj
 0001:00032a50       c52_gearshift_grid_r_dyn   0000000180033a50 f   c52_modello_2017b_levaRetro_acc.obj
 0001:00032eb0       c52_h_emlrt_marshallIn     0000000180033eb0 f   c52_modello_2017b_levaRetro_acc.obj
 0001:00032ef0       c52_init_sf_message_store_memory 0000000180033ef0 f   c52_modello_2017b_levaRetro_acc.obj
 0001:00032f30       c52_muro_selezione_x       0000000180033f30 f   c52_modello_2017b_levaRetro_acc.obj
 0001:000340b0       c52_rigidezza_finale       00000001800350b0 f   c52_modello_2017b_levaRetro_acc.obj
 0001:00034e20       c52_set_sim_state_side_effects_c52_modello_2017b_levaRetro_acc 0000000180035e20 f   c52_modello_2017b_levaRetro_acc.obj
 0001:00034e40       c52_sf_marshallIn          0000000180035e40 f   c52_modello_2017b_levaRetro_acc.obj
 0001:00034f10       c52_sf_marshallOut         0000000180035f10 f   c52_modello_2017b_levaRetro_acc.obj
 0001:00034f80       c52_update_debugger_state_c52_modello_2017b_levaRetro_acc 0000000180035f80 f   c52_modello_2017b_levaRetro_acc.obj
 0001:00035520       chart_debug_initialization 0000000180036520 f   c52_modello_2017b_levaRetro_acc.obj
 0001:00037900       chart_debug_initialize_data_addresses 0000000180038900 f   c52_modello_2017b_levaRetro_acc.obj
 0001:00037dc0       disable_c52_modello_2017b_levaRetro_acc 0000000180038dc0 f   c52_modello_2017b_levaRetro_acc.obj
 0001:00037de0       enable_c52_modello_2017b_levaRetro_acc 0000000180038de0 f   c52_modello_2017b_levaRetro_acc.obj
 0001:00037e00       ext_mode_exec_c52_modello_2017b_levaRetro_acc 0000000180038e00 f   c52_modello_2017b_levaRetro_acc.obj
 0001:00037e10       finalize_c52_modello_2017b_levaRetro_acc 0000000180038e10 f   c52_modello_2017b_levaRetro_acc.obj
 0001:00037e20       get_sim_state_c52_modello_2017b_levaRetro_acc 0000000180038e20 f   c52_modello_2017b_levaRetro_acc.obj
 0001:000381b0       initSimStructsc52_modello_2017b_levaRetro_acc 00000001800391b0 f   c52_modello_2017b_levaRetro_acc.obj
 0001:000381c0       init_dsm_address_info      00000001800391c0 f   c52_modello_2017b_levaRetro_acc.obj
 0001:000381d0       init_script_number_translation 00000001800391d0 f   c52_modello_2017b_levaRetro_acc.obj
 0001:000381e0       init_simulink_io_address   00000001800391e0 f   c52_modello_2017b_levaRetro_acc.obj
 0001:00038330       initialize_c52_modello_2017b_levaRetro_acc 0000000180039330 f   c52_modello_2017b_levaRetro_acc.obj
 0001:00038580       initialize_params_c52_modello_2017b_levaRetro_acc 0000000180039580 f   c52_modello_2017b_levaRetro_acc.obj
 0001:000389a0       mdlProcessParameters_c52_modello_2017b_levaRetro_acc 00000001800399a0 f   c52_modello_2017b_levaRetro_acc.obj
 0001:00038a30       mdlRTW_c52_modello_2017b_levaRetro_acc 0000000180039a30 f   c52_modello_2017b_levaRetro_acc.obj
 0001:00038a70       mdlSetWorkWidths_c52_modello_2017b_levaRetro_acc 0000000180039a70 f   c52_modello_2017b_levaRetro_acc.obj
 0001:000390f0       mdlStart_c52_modello_2017b_levaRetro_acc 000000018003a0f0 f   c52_modello_2017b_levaRetro_acc.obj
 0001:00039270       mdl_start_c52_modello_2017b_levaRetro_acc 000000018003a270 f   c52_modello_2017b_levaRetro_acc.obj
 0001:00039280       set_sim_state_c52_modello_2017b_levaRetro_acc 000000018003a280 f   c52_modello_2017b_levaRetro_acc.obj
 0001:0003a5f0       sf_check_dwork_consistency 000000018003b5f0 f   c52_modello_2017b_levaRetro_acc.obj
 0001:0003a6d0       sf_gateway_c52_modello_2017b_levaRetro_acc 000000018003b6d0 f   c52_modello_2017b_levaRetro_acc.obj
 0001:0003acb0       sf_get_hover_data_for_msg  000000018003bcb0 f   c52_modello_2017b_levaRetro_acc.obj
 0001:0003acc0       sf_get_instance_specialization 000000018003bcc0 f   c52_modello_2017b_levaRetro_acc.obj
 0001:0003acd0       sf_get_sfun_dwork_checksum 000000018003bcd0 f   c52_modello_2017b_levaRetro_acc.obj
 0001:0003ace0       sf_get_sim_state_info_c52_modello_2017b_levaRetro_acc 000000018003bce0 f   c52_modello_2017b_levaRetro_acc.obj
 0001:0003adf0       sf_opaque_disable_c52_modello_2017b_levaRetro_acc 000000018003bdf0 f   c52_modello_2017b_levaRetro_acc.obj
 0001:0003ae10       sf_opaque_enable_c52_modello_2017b_levaRetro_acc 000000018003be10 f   c52_modello_2017b_levaRetro_acc.obj
 0001:0003ae30       sf_opaque_ext_mode_exec_c52_modello_2017b_levaRetro_acc 000000018003be30 f   c52_modello_2017b_levaRetro_acc.obj
 0001:0003ae40       sf_opaque_gateway_c52_modello_2017b_levaRetro_acc 000000018003be40 f   c52_modello_2017b_levaRetro_acc.obj
 0001:0003ae50       sf_opaque_get_hover_data_for_msg 000000018003be50 f   c52_modello_2017b_levaRetro_acc.obj
 0001:0003ae60       sf_opaque_get_sim_state_c52_modello_2017b_levaRetro_acc 000000018003be60 f   c52_modello_2017b_levaRetro_acc.obj
 0001:0003ae80       sf_opaque_initialize_c52_modello_2017b_levaRetro_acc 000000018003be80 f   c52_modello_2017b_levaRetro_acc.obj
 0001:0003aeb0       sf_opaque_set_sim_state_c52_modello_2017b_levaRetro_acc 000000018003beb0 f   c52_modello_2017b_levaRetro_acc.obj
 0001:0003aed0       sf_opaque_terminate_c52_modello_2017b_levaRetro_acc 000000018003bed0 f   c52_modello_2017b_levaRetro_acc.obj
 0001:0003af50       sf_set_sfun_dwork_info     000000018003bf50 f   c52_modello_2017b_levaRetro_acc.obj
 0001:0003af80       c152_asse_x                000000018003bf80 f   c152_modello_2017b_levaRetro_acc.obj
 0001:0003eb04       $LN88                      000000018003fb04     c152_modello_2017b_levaRetro_acc.obj
 0001:0003eb30       c152_b_emlrt_marshallIn    000000018003fb30 f   c152_modello_2017b_levaRetro_acc.obj
 0001:0003eba0       c152_chartstep_c152_modello_2017b_levaRetro_acc 000000018003fba0 f   c152_modello_2017b_levaRetro_acc.obj
 0001:00041130       c152_d_emlrt_marshallIn    0000000180042130 f   c152_modello_2017b_levaRetro_acc.obj
 0001:000411d0       c152_d_sf_marshallIn       00000001800421d0 f   c152_modello_2017b_levaRetro_acc.obj
 0001:000412a0       c152_d_sf_marshallOut      00000001800422a0 f   c152_modello_2017b_levaRetro_acc.obj
 0001:00041310       c152_e_emlrt_marshallIn    0000000180042310 f   c152_modello_2017b_levaRetro_acc.obj
 0001:00041370       c152_e_sf_marshallIn       0000000180042370 f   c152_modello_2017b_levaRetro_acc.obj
 0001:00041500       c152_e_sf_marshallOut      0000000180042500 f   c152_modello_2017b_levaRetro_acc.obj
 0001:000415e0       c152_emlrt_marshallIn      00000001800425e0 f   c152_modello_2017b_levaRetro_acc.obj
 0001:00041680       c152_exit_internal_asse_x  0000000180042680 f   c152_modello_2017b_levaRetro_acc.obj
 0001:00041b0c       $LN14                      0000000180042b0c     c152_modello_2017b_levaRetro_acc.obj
 0001:00041b30       c152_f_emlrt_marshallIn    0000000180042b30 f   c152_modello_2017b_levaRetro_acc.obj
 0001:00041be0       c152_g_emlrt_marshallIn    0000000180042be0 f   c152_modello_2017b_levaRetro_acc.obj
 0001:00041c50       c152_gearshift_grid_r      0000000180042c50 f   c152_modello_2017b_levaRetro_acc.obj
 0001:000420b0       c152_h_emlrt_marshallIn    00000001800430b0 f   c152_modello_2017b_levaRetro_acc.obj
 0001:000421a0       c152_i_emlrt_marshallIn    00000001800431a0 f   c152_modello_2017b_levaRetro_acc.obj
 0001:00042220       c152_init_sf_message_store_memory 0000000180043220 f   c152_modello_2017b_levaRetro_acc.obj
 0001:00042230       c152_j_emlrt_marshallIn    0000000180043230 f   c152_modello_2017b_levaRetro_acc.obj
 0001:000422a0       c152_muro_selezione_x      00000001800432a0 f   c152_modello_2017b_levaRetro_acc.obj
 0001:00043410       c152_rigidezza_finale      0000000180044410 f   c152_modello_2017b_levaRetro_acc.obj
 0001:00044170       c152_set_sim_state_side_effects_c152_modello_2017b_levaRetro_acc 0000000180045170 f   c152_modello_2017b_levaRetro_acc.obj
 0001:00044190       c152_sf_marshallIn         0000000180045190 f   c152_modello_2017b_levaRetro_acc.obj
 0001:00044260       c152_sf_marshallOut        0000000180045260 f   c152_modello_2017b_levaRetro_acc.obj
 0001:000442d0       c152_update_debugger_state_c152_modello_2017b_levaRetro_acc 00000001800452d0 f   c152_modello_2017b_levaRetro_acc.obj
 0001:000449f0       chart_debug_initialization 00000001800459f0 f   c152_modello_2017b_levaRetro_acc.obj
 0001:00047750       chart_debug_initialize_data_addresses 0000000180048750 f   c152_modello_2017b_levaRetro_acc.obj
 0001:00047c50       disable_c152_modello_2017b_levaRetro_acc 0000000180048c50 f   c152_modello_2017b_levaRetro_acc.obj
 0001:00047c70       enable_c152_modello_2017b_levaRetro_acc 0000000180048c70 f   c152_modello_2017b_levaRetro_acc.obj
 0001:00047c90       ext_mode_exec_c152_modello_2017b_levaRetro_acc 0000000180048c90 f   c152_modello_2017b_levaRetro_acc.obj
 0001:00047ca0       finalize_c152_modello_2017b_levaRetro_acc 0000000180048ca0 f   c152_modello_2017b_levaRetro_acc.obj
 0001:00047cb0       get_sim_state_c152_modello_2017b_levaRetro_acc 0000000180048cb0 f   c152_modello_2017b_levaRetro_acc.obj
 0001:00048150       initSimStructsc152_modello_2017b_levaRetro_acc 0000000180049150 f   c152_modello_2017b_levaRetro_acc.obj
 0001:00048160       init_dsm_address_info      0000000180049160 f   c152_modello_2017b_levaRetro_acc.obj
 0001:00048170       init_script_number_translation 0000000180049170 f   c152_modello_2017b_levaRetro_acc.obj
 0001:00048180       init_simulink_io_address   0000000180049180 f   c152_modello_2017b_levaRetro_acc.obj
 0001:00048300       initialize_c152_modello_2017b_levaRetro_acc 0000000180049300 f   c152_modello_2017b_levaRetro_acc.obj
 0001:000485c0       initialize_params_c152_modello_2017b_levaRetro_acc 00000001800495c0 f   c152_modello_2017b_levaRetro_acc.obj
 0001:000489e0       mdlProcessParameters_c152_modello_2017b_levaRetro_acc 00000001800499e0 f   c152_modello_2017b_levaRetro_acc.obj
 0001:00048a70       mdlRTW_c152_modello_2017b_levaRetro_acc 0000000180049a70 f   c152_modello_2017b_levaRetro_acc.obj
 0001:00048ab0       mdlSetWorkWidths_c152_modello_2017b_levaRetro_acc 0000000180049ab0 f   c152_modello_2017b_levaRetro_acc.obj
 0001:00049140       mdlStart_c152_modello_2017b_levaRetro_acc 000000018004a140 f   c152_modello_2017b_levaRetro_acc.obj
 0001:000492c0       mdl_start_c152_modello_2017b_levaRetro_acc 000000018004a2c0 f   c152_modello_2017b_levaRetro_acc.obj
 0001:000492d0       set_sim_state_c152_modello_2017b_levaRetro_acc 000000018004a2d0 f   c152_modello_2017b_levaRetro_acc.obj
 0001:0004a810       sf_check_dwork_consistency 000000018004b810 f   c152_modello_2017b_levaRetro_acc.obj
 0001:0004a8f0       sf_gateway_c152_modello_2017b_levaRetro_acc 000000018004b8f0 f   c152_modello_2017b_levaRetro_acc.obj
 0001:0004ab00       sf_get_hover_data_for_msg  000000018004bb00 f   c152_modello_2017b_levaRetro_acc.obj
 0001:0004ab10       sf_get_instance_specialization 000000018004bb10 f   c152_modello_2017b_levaRetro_acc.obj
 0001:0004ab20       sf_get_sfun_dwork_checksum 000000018004bb20 f   c152_modello_2017b_levaRetro_acc.obj
 0001:0004ab30       sf_get_sim_state_info_c152_modello_2017b_levaRetro_acc 000000018004bb30 f   c152_modello_2017b_levaRetro_acc.obj
 0001:0004ac40       sf_opaque_disable_c152_modello_2017b_levaRetro_acc 000000018004bc40 f   c152_modello_2017b_levaRetro_acc.obj
 0001:0004ac60       sf_opaque_enable_c152_modello_2017b_levaRetro_acc 000000018004bc60 f   c152_modello_2017b_levaRetro_acc.obj
 0001:0004ac80       sf_opaque_ext_mode_exec_c152_modello_2017b_levaRetro_acc 000000018004bc80 f   c152_modello_2017b_levaRetro_acc.obj
 0001:0004ac90       sf_opaque_gateway_c152_modello_2017b_levaRetro_acc 000000018004bc90 f   c152_modello_2017b_levaRetro_acc.obj
 0001:0004aca0       sf_opaque_get_hover_data_for_msg 000000018004bca0 f   c152_modello_2017b_levaRetro_acc.obj
 0001:0004acb0       sf_opaque_get_sim_state_c152_modello_2017b_levaRetro_acc 000000018004bcb0 f   c152_modello_2017b_levaRetro_acc.obj
 0001:0004acd0       sf_opaque_initialize_c152_modello_2017b_levaRetro_acc 000000018004bcd0 f   c152_modello_2017b_levaRetro_acc.obj
 0001:0004ad00       sf_opaque_set_sim_state_c152_modello_2017b_levaRetro_acc 000000018004bd00 f   c152_modello_2017b_levaRetro_acc.obj
 0001:0004ad20       sf_opaque_terminate_c152_modello_2017b_levaRetro_acc 000000018004bd20 f   c152_modello_2017b_levaRetro_acc.obj
 0001:0004ada0       sf_set_sfun_dwork_info     000000018004bda0 f   c152_modello_2017b_levaRetro_acc.obj
 0001:0004ade0       c451_THRESHOLD_BL          000000018004bde0 f   c451_modello_2017b_levaRetro_acc.obj
 0001:0004b210       c451_THRESHOLD_BR          000000018004c210 f   c451_modello_2017b_levaRetro_acc.obj
 0001:0004b640       c451_TRANSITION_PT_BL_RR_PT_BL_RR2 000000018004c640 f   c451_modello_2017b_levaRetro_acc.obj
 0001:0004bda0       c451_TRANSITION_PT_RL_BR2_PT_RL_BR 000000018004cda0 f   c451_modello_2017b_levaRetro_acc.obj
 0001:0004c500       c451_b_emlrt_marshallIn    000000018004d500 f   c451_modello_2017b_levaRetro_acc.obj
 0001:0004c5a0       c451_c_emlrt_marshallIn    000000018004d5a0 f   c451_modello_2017b_levaRetro_acc.obj
 0001:0004c600       c451_c_sf_marshallIn       000000018004d600 f   c451_modello_2017b_levaRetro_acc.obj
 0001:0004c6d0       c451_c_sf_marshallOut      000000018004d6d0 f   c451_modello_2017b_levaRetro_acc.obj
 0001:0004c740       c451_d_emlrt_marshallIn    000000018004d740 f   c451_modello_2017b_levaRetro_acc.obj
 0001:0004c7e0       c451_d_sf_marshallIn       000000018004d7e0 f   c451_modello_2017b_levaRetro_acc.obj
 0001:0004c8b0       c451_d_sf_marshallOut      000000018004d8b0 f   c451_modello_2017b_levaRetro_acc.obj
 0001:0004c920       c451_e_emlrt_marshallIn    000000018004d920 f   c451_modello_2017b_levaRetro_acc.obj
 0001:0004c990       c451_exit_internal_state_machine 000000018004d990 f   c451_modello_2017b_levaRetro_acc.obj
 0001:0004d120       $LN20                      000000018004e120     c451_modello_2017b_levaRetro_acc.obj
 0001:0004d160       c451_f_emlrt_marshallIn    000000018004e160 f   c451_modello_2017b_levaRetro_acc.obj
 0001:0004d210       c451_g_emlrt_marshallIn    000000018004e210 f   c451_modello_2017b_levaRetro_acc.obj
 0001:0004d280       c451_h_emlrt_marshallIn    000000018004e280 f   c451_modello_2017b_levaRetro_acc.obj
 0001:0004d300       c451_i_emlrt_marshallIn    000000018004e300 f   c451_modello_2017b_levaRetro_acc.obj
 0001:0004d340       c451_init_sf_message_store_memory 000000018004e340 f   c451_modello_2017b_levaRetro_acc.obj
 0001:0004d380       c451_set_sim_state_side_effects_c451_modello_2017b_levaRetro_acc 000000018004e380 f   c451_modello_2017b_levaRetro_acc.obj
 0001:0004d3a0       c451_state_machine         000000018004e3a0 f   c451_modello_2017b_levaRetro_acc.obj
 0001:0005166c       $LN60                      000000018005266c     c451_modello_2017b_levaRetro_acc.obj
 0001:000516b0       c451_update_debugger_state_c451_modello_2017b_levaRetro_acc 00000001800526b0 f   c451_modello_2017b_levaRetro_acc.obj
 0001:00051f50       chart_debug_initialization 0000000180052f50 f   c451_modello_2017b_levaRetro_acc.obj
 0001:000541b0       chart_debug_initialize_data_addresses 00000001800551b0 f   c451_modello_2017b_levaRetro_acc.obj
 0001:00054470       disable_c451_modello_2017b_levaRetro_acc 0000000180055470 f   c451_modello_2017b_levaRetro_acc.obj
 0001:00054490       enable_c451_modello_2017b_levaRetro_acc 0000000180055490 f   c451_modello_2017b_levaRetro_acc.obj
 0001:000544b0       ext_mode_exec_c451_modello_2017b_levaRetro_acc 00000001800554b0 f   c451_modello_2017b_levaRetro_acc.obj
 0001:000544c0       finalize_c451_modello_2017b_levaRetro_acc 00000001800554c0 f   c451_modello_2017b_levaRetro_acc.obj
 0001:000544d0       get_sim_state_c451_modello_2017b_levaRetro_acc 00000001800554d0 f   c451_modello_2017b_levaRetro_acc.obj
 0001:000546f0       initSimStructsc451_modello_2017b_levaRetro_acc 00000001800556f0 f   c451_modello_2017b_levaRetro_acc.obj
 0001:00054700       init_dsm_address_info      0000000180055700 f   c451_modello_2017b_levaRetro_acc.obj
 0001:00054710       init_script_number_translation 0000000180055710 f   c451_modello_2017b_levaRetro_acc.obj
 0001:00054720       init_simulink_io_address   0000000180055720 f   c451_modello_2017b_levaRetro_acc.obj
 0001:000547e0       initialize_c451_modello_2017b_levaRetro_acc 00000001800557e0 f   c451_modello_2017b_levaRetro_acc.obj
 0001:00054950       initialize_params_c451_modello_2017b_levaRetro_acc 0000000180055950 f   c451_modello_2017b_levaRetro_acc.obj
 0001:00054b50       mdlProcessParameters_c451_modello_2017b_levaRetro_acc 0000000180055b50 f   c451_modello_2017b_levaRetro_acc.obj
 0001:00054dc0       mdlRTW_c451_modello_2017b_levaRetro_acc 0000000180055dc0 f   c451_modello_2017b_levaRetro_acc.obj
 0001:00054e00       mdlSetWorkWidths_c451_modello_2017b_levaRetro_acc 0000000180055e00 f   c451_modello_2017b_levaRetro_acc.obj
 0001:00055350       mdlStart_c451_modello_2017b_levaRetro_acc 0000000180056350 f   c451_modello_2017b_levaRetro_acc.obj
 0001:000554d0       mdl_start_c451_modello_2017b_levaRetro_acc 00000001800564d0 f   c451_modello_2017b_levaRetro_acc.obj
 0001:000554e0       set_sim_state_c451_modello_2017b_levaRetro_acc 00000001800564e0 f   c451_modello_2017b_levaRetro_acc.obj
 0001:00056450       sf_check_dwork_consistency 0000000180057450 f   c451_modello_2017b_levaRetro_acc.obj
 0001:00056530       sf_gateway_c451_modello_2017b_levaRetro_acc 0000000180057530 f   c451_modello_2017b_levaRetro_acc.obj
 0001:00056ae0       sf_get_hover_data_for_msg  0000000180057ae0 f   c451_modello_2017b_levaRetro_acc.obj
 0001:00056af0       sf_get_instance_specialization 0000000180057af0 f   c451_modello_2017b_levaRetro_acc.obj
 0001:00056b00       sf_get_sfun_dwork_checksum 0000000180057b00 f   c451_modello_2017b_levaRetro_acc.obj
 0001:00056b10       sf_get_sim_state_info_c451_modello_2017b_levaRetro_acc 0000000180057b10 f   c451_modello_2017b_levaRetro_acc.obj
 0001:00056c20       sf_opaque_disable_c451_modello_2017b_levaRetro_acc 0000000180057c20 f   c451_modello_2017b_levaRetro_acc.obj
 0001:00056c40       sf_opaque_enable_c451_modello_2017b_levaRetro_acc 0000000180057c40 f   c451_modello_2017b_levaRetro_acc.obj
 0001:00056c60       sf_opaque_ext_mode_exec_c451_modello_2017b_levaRetro_acc 0000000180057c60 f   c451_modello_2017b_levaRetro_acc.obj
 0001:00056c70       sf_opaque_gateway_c451_modello_2017b_levaRetro_acc 0000000180057c70 f   c451_modello_2017b_levaRetro_acc.obj
 0001:00056c80       sf_opaque_get_hover_data_for_msg 0000000180057c80 f   c451_modello_2017b_levaRetro_acc.obj
 0001:00056c90       sf_opaque_get_sim_state_c451_modello_2017b_levaRetro_acc 0000000180057c90 f   c451_modello_2017b_levaRetro_acc.obj
 0001:00056cb0       sf_opaque_initialize_c451_modello_2017b_levaRetro_acc 0000000180057cb0 f   c451_modello_2017b_levaRetro_acc.obj
 0001:00056ce0       sf_opaque_set_sim_state_c451_modello_2017b_levaRetro_acc 0000000180057ce0 f   c451_modello_2017b_levaRetro_acc.obj
 0001:00056d00       sf_opaque_terminate_c451_modello_2017b_levaRetro_acc 0000000180057d00 f   c451_modello_2017b_levaRetro_acc.obj
 0001:00056d80       sf_set_sfun_dwork_info     0000000180057d80 f   c451_modello_2017b_levaRetro_acc.obj
 0001:00056db0       c463_THRESHOLD_BL          0000000180057db0 f   c463_modello_2017b_levaRetro_acc.obj
 0001:000571e0       c463_THRESHOLD_BR          00000001800581e0 f   c463_modello_2017b_levaRetro_acc.obj
 0001:00057610       c463_TRANSITION_PT_BL_RR_PT_BL_RR2 0000000180058610 f   c463_modello_2017b_levaRetro_acc.obj
 0001:00057d70       c463_TRANSITION_PT_RL_BR2_PT_RL_BR 0000000180058d70 f   c463_modello_2017b_levaRetro_acc.obj
 0001:000584d0       c463_b_emlrt_marshallIn    00000001800594d0 f   c463_modello_2017b_levaRetro_acc.obj
 0001:00058570       c463_c_emlrt_marshallIn    0000000180059570 f   c463_modello_2017b_levaRetro_acc.obj
 0001:000585d0       c463_c_sf_marshallIn       00000001800595d0 f   c463_modello_2017b_levaRetro_acc.obj
 0001:000586a0       c463_c_sf_marshallOut      00000001800596a0 f   c463_modello_2017b_levaRetro_acc.obj
 0001:00058710       c463_d_emlrt_marshallIn    0000000180059710 f   c463_modello_2017b_levaRetro_acc.obj
 0001:000587b0       c463_d_sf_marshallIn       00000001800597b0 f   c463_modello_2017b_levaRetro_acc.obj
 0001:00058880       c463_d_sf_marshallOut      0000000180059880 f   c463_modello_2017b_levaRetro_acc.obj
 0001:000588f0       c463_e_emlrt_marshallIn    00000001800598f0 f   c463_modello_2017b_levaRetro_acc.obj
 0001:00058960       c463_exit_internal_state_machine 0000000180059960 f   c463_modello_2017b_levaRetro_acc.obj
 0001:000590f0       $LN20                      000000018005a0f0     c463_modello_2017b_levaRetro_acc.obj
 0001:00059130       c463_f_emlrt_marshallIn    000000018005a130 f   c463_modello_2017b_levaRetro_acc.obj
 0001:000591e0       c463_g_emlrt_marshallIn    000000018005a1e0 f   c463_modello_2017b_levaRetro_acc.obj
 0001:00059250       c463_h_emlrt_marshallIn    000000018005a250 f   c463_modello_2017b_levaRetro_acc.obj
 0001:000592d0       c463_i_emlrt_marshallIn    000000018005a2d0 f   c463_modello_2017b_levaRetro_acc.obj
 0001:00059310       c463_init_sf_message_store_memory 000000018005a310 f   c463_modello_2017b_levaRetro_acc.obj
 0001:00059350       c463_set_sim_state_side_effects_c463_modello_2017b_levaRetro_acc 000000018005a350 f   c463_modello_2017b_levaRetro_acc.obj
 0001:00059370       c463_state_machine         000000018005a370 f   c463_modello_2017b_levaRetro_acc.obj
 0001:0005d644       $LN60                      000000018005e644     c463_modello_2017b_levaRetro_acc.obj
 0001:0005d680       c463_update_debugger_state_c463_modello_2017b_levaRetro_acc 000000018005e680 f   c463_modello_2017b_levaRetro_acc.obj
 0001:0005df20       chart_debug_initialization 000000018005ef20 f   c463_modello_2017b_levaRetro_acc.obj
 0001:00060180       chart_debug_initialize_data_addresses 0000000180061180 f   c463_modello_2017b_levaRetro_acc.obj
 0001:00060440       disable_c463_modello_2017b_levaRetro_acc 0000000180061440 f   c463_modello_2017b_levaRetro_acc.obj
 0001:00060460       enable_c463_modello_2017b_levaRetro_acc 0000000180061460 f   c463_modello_2017b_levaRetro_acc.obj
 0001:00060480       ext_mode_exec_c463_modello_2017b_levaRetro_acc 0000000180061480 f   c463_modello_2017b_levaRetro_acc.obj
 0001:00060490       finalize_c463_modello_2017b_levaRetro_acc 0000000180061490 f   c463_modello_2017b_levaRetro_acc.obj
 0001:000604a0       get_sim_state_c463_modello_2017b_levaRetro_acc 00000001800614a0 f   c463_modello_2017b_levaRetro_acc.obj
 0001:000606c0       initSimStructsc463_modello_2017b_levaRetro_acc 00000001800616c0 f   c463_modello_2017b_levaRetro_acc.obj
 0001:000606d0       init_dsm_address_info      00000001800616d0 f   c463_modello_2017b_levaRetro_acc.obj
 0001:000606e0       init_script_number_translation 00000001800616e0 f   c463_modello_2017b_levaRetro_acc.obj
 0001:000606f0       init_simulink_io_address   00000001800616f0 f   c463_modello_2017b_levaRetro_acc.obj
 0001:000607b0       initialize_c463_modello_2017b_levaRetro_acc 00000001800617b0 f   c463_modello_2017b_levaRetro_acc.obj
 0001:00060920       initialize_params_c463_modello_2017b_levaRetro_acc 0000000180061920 f   c463_modello_2017b_levaRetro_acc.obj
 0001:00060b20       mdlProcessParameters_c463_modello_2017b_levaRetro_acc 0000000180061b20 f   c463_modello_2017b_levaRetro_acc.obj
 0001:00060d90       mdlRTW_c463_modello_2017b_levaRetro_acc 0000000180061d90 f   c463_modello_2017b_levaRetro_acc.obj
 0001:00060dd0       mdlSetWorkWidths_c463_modello_2017b_levaRetro_acc 0000000180061dd0 f   c463_modello_2017b_levaRetro_acc.obj
 0001:00061320       mdlStart_c463_modello_2017b_levaRetro_acc 0000000180062320 f   c463_modello_2017b_levaRetro_acc.obj
 0001:000614a0       mdl_start_c463_modello_2017b_levaRetro_acc 00000001800624a0 f   c463_modello_2017b_levaRetro_acc.obj
 0001:000614b0       set_sim_state_c463_modello_2017b_levaRetro_acc 00000001800624b0 f   c463_modello_2017b_levaRetro_acc.obj
 0001:00062420       sf_check_dwork_consistency 0000000180063420 f   c463_modello_2017b_levaRetro_acc.obj
 0001:00062500       sf_gateway_c463_modello_2017b_levaRetro_acc 0000000180063500 f   c463_modello_2017b_levaRetro_acc.obj
 0001:00062ab0       sf_get_hover_data_for_msg  0000000180063ab0 f   c463_modello_2017b_levaRetro_acc.obj
 0001:00062ac0       sf_get_instance_specialization 0000000180063ac0 f   c463_modello_2017b_levaRetro_acc.obj
 0001:00062ad0       sf_get_sfun_dwork_checksum 0000000180063ad0 f   c463_modello_2017b_levaRetro_acc.obj
 0001:00062ae0       sf_get_sim_state_info_c463_modello_2017b_levaRetro_acc 0000000180063ae0 f   c463_modello_2017b_levaRetro_acc.obj
 0001:00062bf0       sf_opaque_disable_c463_modello_2017b_levaRetro_acc 0000000180063bf0 f   c463_modello_2017b_levaRetro_acc.obj
 0001:00062c10       sf_opaque_enable_c463_modello_2017b_levaRetro_acc 0000000180063c10 f   c463_modello_2017b_levaRetro_acc.obj
 0001:00062c30       sf_opaque_ext_mode_exec_c463_modello_2017b_levaRetro_acc 0000000180063c30 f   c463_modello_2017b_levaRetro_acc.obj
 0001:00062c40       sf_opaque_gateway_c463_modello_2017b_levaRetro_acc 0000000180063c40 f   c463_modello_2017b_levaRetro_acc.obj
 0001:00062c50       sf_opaque_get_hover_data_for_msg 0000000180063c50 f   c463_modello_2017b_levaRetro_acc.obj
 0001:00062c60       sf_opaque_get_sim_state_c463_modello_2017b_levaRetro_acc 0000000180063c60 f   c463_modello_2017b_levaRetro_acc.obj
 0001:00062c80       sf_opaque_initialize_c463_modello_2017b_levaRetro_acc 0000000180063c80 f   c463_modello_2017b_levaRetro_acc.obj
 0001:00062cb0       sf_opaque_set_sim_state_c463_modello_2017b_levaRetro_acc 0000000180063cb0 f   c463_modello_2017b_levaRetro_acc.obj
 0001:00062cd0       sf_opaque_terminate_c463_modello_2017b_levaRetro_acc 0000000180063cd0 f   c463_modello_2017b_levaRetro_acc.obj
 0001:00062d50       sf_set_sfun_dwork_info     0000000180063d50 f   c463_modello_2017b_levaRetro_acc.obj
 0001:00062d80       ProcessMexSfunctionCmdLineCall 0000000180063d80 f   modello_2017b_levaRetro_acc_sfun_registry.obj
 0001:00062ff0       ReportIndexOutOfBoundsError 0000000180063ff0 f   modello_2017b_levaRetro_acc_sfun_registry.obj
 0001:000630a0       _CreateSimStruct           00000001800640a0 f   modello_2017b_levaRetro_acc_sfun_registry.obj
 0001:000631e0       _ProcessMexSfunctionCmdLineCall 00000001800641e0 f   modello_2017b_levaRetro_acc_sfun_registry.obj
 0001:00063800       _RegNumInputPortsCB        0000000180064800 f   modello_2017b_levaRetro_acc_sfun_registry.obj
 0001:00063850       _RegNumOutputPortsCB       0000000180064850 f   modello_2017b_levaRetro_acc_sfun_registry.obj
 0001:00064dd0       mdlDerivatives             0000000180065dd0 f   modello_2017b_levaRetro_acc_sfun_registry.obj
 0001:00064de0       mdlDisable                 0000000180065de0 f   modello_2017b_levaRetro_acc_sfun_registry.obj
 0001:00064df0       mdlEnable                  0000000180065df0 f   modello_2017b_levaRetro_acc_sfun_registry.obj
 0001:00064e00       mdlExtModeExec             0000000180065e00 f   modello_2017b_levaRetro_acc_sfun_registry.obj
 0001:00064e30       mdlGetTimeOfNextVarHit     0000000180065e30 f   modello_2017b_levaRetro_acc_sfun_registry.obj
 0001:00064e60       mdlInitializeConditions    0000000180065e60 f   modello_2017b_levaRetro_acc_sfun_registry.obj
 0001:00064e70       mdlInitializeSampleTimes   0000000180065e70 f   modello_2017b_levaRetro_acc_sfun_registry.obj
 0001:00064e90       mdlInitializeSizes         0000000180065e90 f   modello_2017b_levaRetro_acc_sfun_registry.obj
 0001:00064eb0       mdlOutputs                 0000000180065eb0 f   modello_2017b_levaRetro_acc_sfun_registry.obj
 0001:00064ec0       mdlProcessParameters       0000000180065ec0 f   modello_2017b_levaRetro_acc_sfun_registry.obj
 0001:00064ee0       mdlRTW                     0000000180065ee0 f   modello_2017b_levaRetro_acc_sfun_registry.obj
 0001:00064f50       mdlSetWorkWidths           0000000180065f50 f   modello_2017b_levaRetro_acc_sfun_registry.obj
 0001:00064f70       mdlStart                   0000000180065f70 f   modello_2017b_levaRetro_acc_sfun_registry.obj
 0001:00064f80       mdlTerminate               0000000180065f80 f   modello_2017b_levaRetro_acc_sfun_registry.obj
 0001:00064f90       mdlUpdate                  0000000180065f90 f   modello_2017b_levaRetro_acc_sfun_registry.obj
 0001:00064fa0       mdlZeroCrossings           0000000180065fa0 f   modello_2017b_levaRetro_acc_sfun_registry.obj
 0001:00064fb0       mdl_derivatives_processing 0000000180065fb0 f   modello_2017b_levaRetro_acc_sfun_registry.obj
 0001:00064fe0       mdl_disable_processing     0000000180065fe0 f   modello_2017b_levaRetro_acc_sfun_registry.obj
 0001:00065000       mdl_enable_processing      0000000180066000 f   modello_2017b_levaRetro_acc_sfun_registry.obj
 0001:00065020       mdl_ext_mode_exec_processing 0000000180066020 f   modello_2017b_levaRetro_acc_sfun_registry.obj
 0001:00065050       mdl_initialize_conditions_processing 0000000180066050 f   modello_2017b_levaRetro_acc_sfun_registry.obj
 0001:00065080       mdl_outputs_continuous_legacy 0000000180066080 f   modello_2017b_levaRetro_acc_sfun_registry.obj
 0001:00065100       mdl_outputs_processing     0000000180066100 f   modello_2017b_levaRetro_acc_sfun_registry.obj
 0001:000651a0       mdl_start_processing       00000001800661a0 f   modello_2017b_levaRetro_acc_sfun_registry.obj
 0001:00065220       mdl_terminate_processing   0000000180066220 f   modello_2017b_levaRetro_acc_sfun_registry.obj
 0001:000652d0       mdl_update_processing      00000001800662d0 f   modello_2017b_levaRetro_acc_sfun_registry.obj
 0001:00065300       mdl_zeroCrossings_processing 0000000180066300 f   modello_2017b_levaRetro_acc_sfun_registry.obj
 0001:00065f3c       $LN238                     0000000180066f3c     modello_2017b_levaRetro_acc_sfun_registry.obj
 0001:00066010       sf_debug_api_wrapper       0000000180067010 f   modello_2017b_levaRetro_acc_sfun_registry.obj
 0001:000668f4       $LN17                      00000001800678f4     modello_2017b_levaRetro_acc_sfun_registry.obj
 0001:000672d0       $LN28                      00000001800682d0     modello_2017b_levaRetro_acc_sfun_registry.obj
 0001:00067598       $LN47                      0000000180068598     modello_2017b_levaRetro_acc_sfun_registry.obj
 0001:000677a4       $LN42                      00000001800687a4     modello_2017b_levaRetro_acc_sfun_registry.obj
 0001:00067f60       $$000000                   0000000180068f60     MSVCRT:_amdsecgs_.obj
 0001:00067f94       ?dllmain_crt_dispatch@@YAHQEAUHINSTANCE__@@KQEAX@Z 0000000180068f94 f   MSVCRT:dll_dllmain.obj
 0001:00067fe4       ?dllmain_crt_process_attach@@YAHQEAUHINSTANCE__@@QEAX@Z 0000000180068fe4 f   MSVCRT:dll_dllmain.obj
 0001:00068110       ?dllmain_crt_process_detach@@YAH_N@Z 0000000180069110 f   MSVCRT:dll_dllmain.obj
 0001:00068194       ?dllmain_dispatch@@YAHQEAUHINSTANCE__@@KQEAX@Z 0000000180069194 f   MSVCRT:dll_dllmain.obj
 0001:0006828c       ?dllmain_raw@@YAHQEAUHINSTANCE__@@KQEAX@Z 000000018006928c f   MSVCRT:dll_dllmain.obj
 0001:000685f0       capture_current_context    00000001800695f0 f   MSVCRT:gs_report.obj
 0001:00068660       capture_previous_context   0000000180069660 f   MSVCRT:gs_report.obj
 0001:0006872c       ?find_pe_section@@YAPEAU_IMAGE_SECTION_HEADER@@QEAE_K@Z 000000018006972c f   MSVCRT:utility.obj
 0001:00068778       ?is_potentially_valid_image_base@@YA_NQEAX@Z 0000000180069778 f   MSVCRT:utility.obj
 0001:000692b0       $$000000                   000000018006a2b0     MSVCRT:_guard_dispatch_.obj
 0001:000692c2       ?fin$0@?0??dllmain_crt_process_attach@@YAHQEAUHINSTANCE__@@QEAX@Z@4HA 000000018006a2c2 f   MSVCRT:dll_dllmain.obj
 0001:000692d9       ?fin$0@?0??dllmain_crt_process_detach@@YAH_N@Z@4HA 000000018006a2d9 f   MSVCRT:dll_dllmain.obj
 0001:000692f5       ?filt$0@?0??dllmain_dispatch@@YAHQEAUHINSTANCE__@@KQEAX@Z@4HA 000000018006a2f5 f   MSVCRT:dll_dllmain.obj
 0001:0006932b       __scrt_is_nonwritable_in_current_image$filt$0 000000018006a32b f   MSVCRT:utility.obj
 0002:00004260       GS_ExceptionPointers       000000018006f260     MSVCRT:gs_report.obj
 0002:00004570       $unwind$load_modello_2017b_levaRetro_acc_optimization_info 000000018006f570     modello_2017b_levaRetro_acc_sfun.obj
 0002:00004580       $unwind$unload_modello_2017b_levaRetro_acc_optimization_info 000000018006f580     modello_2017b_levaRetro_acc_sfun.obj
 0002:00004588       $unwind$sf_modello_2017b_levaRetro_acc_method_dispatcher 000000018006f588     modello_2017b_levaRetro_acc_sfun.obj
 0002:00004590       $unwind$sf_modello_2017b_levaRetro_acc_process_testpoint_info_call 000000018006f590     modello_2017b_levaRetro_acc_sfun.obj
 0002:000045a8       $unwind$sf_modello_2017b_levaRetro_acc_process_check_sum_call 000000018006f5a8     modello_2017b_levaRetro_acc_sfun.obj
 0002:000045bc       $chain$0$sf_modello_2017b_levaRetro_acc_process_check_sum_call 000000018006f5bc     modello_2017b_levaRetro_acc_sfun.obj
 0002:000045d0       $chain$1$sf_modello_2017b_levaRetro_acc_process_check_sum_call 000000018006f5d0     modello_2017b_levaRetro_acc_sfun.obj
 0002:000045e0       $unwind$sf_modello_2017b_levaRetro_acc_autoinheritance_info 000000018006f5e0     modello_2017b_levaRetro_acc_sfun.obj
 0002:000045f8       $unwind$sf_modello_2017b_levaRetro_acc_get_eml_resolved_functions_info 000000018006f5f8     modello_2017b_levaRetro_acc_sfun.obj
 0002:00004610       $unwind$sf_modello_2017b_levaRetro_acc_third_party_uses_info 000000018006f610     modello_2017b_levaRetro_acc_sfun.obj
 0002:00004628       $unwind$sf_modello_2017b_levaRetro_acc_jit_fallback_info 000000018006f628     modello_2017b_levaRetro_acc_sfun.obj
 0002:00004640       $unwind$sf_modello_2017b_levaRetro_acc_updateBuildInfo_args_info 000000018006f640     modello_2017b_levaRetro_acc_sfun.obj
 0002:00004658       $unwind$modello_2017b_levaRetro_acc_debug_initialize 000000018006f658     modello_2017b_levaRetro_acc_sfun.obj
 0002:00004660       $unwind$sf_c1_modello_2017b_levaRetro_acc_get_eml_resolved_functions_info 000000018006f660     c1_modello_2017b_levaRetro_acc.obj
 0002:00004668       $unwind$sf_c1_modello_2017b_levaRetro_acc_get_check_sum 000000018006f668     c1_modello_2017b_levaRetro_acc.obj
 0002:00004670       $unwind$chart_debug_initialization 000000018006f670     c1_modello_2017b_levaRetro_acc.obj
 0002:00004680       $chain$4$chart_debug_initialization 000000018006f680     c1_modello_2017b_levaRetro_acc.obj
 0002:000046a4       $chain$5$chart_debug_initialization 000000018006f6a4     c1_modello_2017b_levaRetro_acc.obj
 0002:000046b4       $unwind$chart_debug_initialize_data_addresses 000000018006f6b4     c1_modello_2017b_levaRetro_acc.obj
 0002:000046bc       $chain$0$chart_debug_initialize_data_addresses 000000018006f6bc     c1_modello_2017b_levaRetro_acc.obj
 0002:000046d0       $chain$1$chart_debug_initialize_data_addresses 000000018006f6d0     c1_modello_2017b_levaRetro_acc.obj
 0002:000046e0       $unwind$initialize_c1_modello_2017b_levaRetro_acc 000000018006f6e0     c1_modello_2017b_levaRetro_acc.obj
 0002:000046e8       $unwind$enable_c1_modello_2017b_levaRetro_acc 000000018006f6e8     c1_modello_2017b_levaRetro_acc.obj
 0002:000046f0       $unwind$disable_c1_modello_2017b_levaRetro_acc 000000018006f6f0     c1_modello_2017b_levaRetro_acc.obj
 0002:000046f8       $unwind$c1_update_debugger_state_c1_modello_2017b_levaRetro_acc 000000018006f6f8     c1_modello_2017b_levaRetro_acc.obj
 0002:00004708       $unwind$get_sim_state_c1_modello_2017b_levaRetro_acc 000000018006f708     c1_modello_2017b_levaRetro_acc.obj
 0002:00004718       $unwind$set_sim_state_c1_modello_2017b_levaRetro_acc 000000018006f718     c1_modello_2017b_levaRetro_acc.obj
 0002:00004728       $unwind$sf_gateway_c1_modello_2017b_levaRetro_acc 000000018006f728     c1_modello_2017b_levaRetro_acc.obj
 0002:00004734       $chain$0$sf_gateway_c1_modello_2017b_levaRetro_acc 000000018006f734     c1_modello_2017b_levaRetro_acc.obj
 0002:00004748       $chain$1$sf_gateway_c1_modello_2017b_levaRetro_acc 000000018006f748     c1_modello_2017b_levaRetro_acc.obj
 0002:00004758       $unwind$c1_DS402StateMachine 000000018006f758     c1_modello_2017b_levaRetro_acc.obj
 0002:00004780       $unwind$c1_exit_internal_DS402StateMachine 000000018006f780     c1_modello_2017b_levaRetro_acc.obj
 0002:0000478c       $unwind$c1_enter_atomic_fault_reaction_active 000000018006f78c     c1_modello_2017b_levaRetro_acc.obj
 0002:00004798       $unwind$c1_enter_atomic_fault 000000018006f798     c1_modello_2017b_levaRetro_acc.obj
 0002:000047a4       $unwind$c1_reset_fault_logic 000000018006f7a4     c1_modello_2017b_levaRetro_acc.obj
 0002:000047c4       $unwind$c1_not_ready_to_switch_on 000000018006f7c4     c1_modello_2017b_levaRetro_acc.obj
 0002:000047e0       $unwind$c1_enter_atomic_switch_on_disabled 000000018006f7e0     c1_modello_2017b_levaRetro_acc.obj
 0002:000047ec       $unwind$c1_switch_on_disabled 000000018006f7ec     c1_modello_2017b_levaRetro_acc.obj
 0002:00004814       $unwind$c1_enter_atomic_ready_to_switch_on 000000018006f814     c1_modello_2017b_levaRetro_acc.obj
 0002:00004820       $unwind$c1_ready_to_switch_on 000000018006f820     c1_modello_2017b_levaRetro_acc.obj
 0002:00004848       $unwind$c1_enter_atomic_quick_stop_active 000000018006f848     c1_modello_2017b_levaRetro_acc.obj
 0002:00004854       $unwind$c1_quick_stop_active 000000018006f854     c1_modello_2017b_levaRetro_acc.obj
 0002:00004878       $unwind$c1_enter_atomic_switched_on 000000018006f878     c1_modello_2017b_levaRetro_acc.obj
 0002:00004884       $unwind$c1_switched_on     000000018006f884     c1_modello_2017b_levaRetro_acc.obj
 0002:000048ac       $unwind$c1_enter_atomic_operation_enabled 000000018006f8ac     c1_modello_2017b_levaRetro_acc.obj
 0002:000048b8       $unwind$c1_operation_enabled 000000018006f8b8     c1_modello_2017b_levaRetro_acc.obj
 0002:000048e0       $unwind$c1_sf_marshallOut  000000018006f8e0     c1_modello_2017b_levaRetro_acc.obj
 0002:000048e8       $unwind$c1_emlrt_marshallIn 000000018006f8e8     c1_modello_2017b_levaRetro_acc.obj
 0002:000048f4       $unwind$c1_b_emlrt_marshallIn 000000018006f8f4     c1_modello_2017b_levaRetro_acc.obj
 0002:00004900       $unwind$c1_sf_marshallIn   000000018006f900     c1_modello_2017b_levaRetro_acc.obj
 0002:00004910       $unwind$c1_b_sf_marshallOut 000000018006f910     c1_modello_2017b_levaRetro_acc.obj
 0002:00004918       $unwind$c1_c_emlrt_marshallIn 000000018006f918     c1_modello_2017b_levaRetro_acc.obj
 0002:00004920       $unwind$c1_b_sf_marshallIn 000000018006f920     c1_modello_2017b_levaRetro_acc.obj
 0002:0000492c       $unwind$c1_e_emlrt_marshallIn 000000018006f92c     c1_modello_2017b_levaRetro_acc.obj
 0002:00004934       $unwind$c1_f_emlrt_marshallIn 000000018006f934     c1_modello_2017b_levaRetro_acc.obj
 0002:0000493c       $unwind$c1_e_sf_marshallOut 000000018006f93c     c1_modello_2017b_levaRetro_acc.obj
 0002:00004944       $unwind$c1_f_sf_marshallOut 000000018006f944     c1_modello_2017b_levaRetro_acc.obj
 0002:0000494c       $unwind$c1_g_emlrt_marshallIn 000000018006f94c     c1_modello_2017b_levaRetro_acc.obj
 0002:00004954       $unwind$c1_h_emlrt_marshallIn 000000018006f954     c1_modello_2017b_levaRetro_acc.obj
 0002:00004960       $unwind$c1_i_emlrt_marshallIn 000000018006f960     c1_modello_2017b_levaRetro_acc.obj
 0002:00004968       $unwind$c1_j_emlrt_marshallIn 000000018006f968     c1_modello_2017b_levaRetro_acc.obj
 0002:00004970       $unwind$init_simulink_io_address 000000018006f970     c1_modello_2017b_levaRetro_acc.obj
 0002:00004978       $unwind$sf_c1_modello_2017b_levaRetro_acc_get_post_codegen_info 000000018006f978     c1_modello_2017b_levaRetro_acc.obj
 0002:0000498c       $unwind$sf_c1_modello_2017b_levaRetro_acc_get_autoinheritance_info 000000018006f98c     c1_modello_2017b_levaRetro_acc.obj
 0002:000049b8       $unwind$sf_c1_modello_2017b_levaRetro_acc_jit_fallback_info 000000018006f9b8     c1_modello_2017b_levaRetro_acc.obj
 0002:000049d8       $unwind$sf_get_sim_state_info_c1_modello_2017b_levaRetro_acc 000000018006f9d8     c1_modello_2017b_levaRetro_acc.obj
 0002:000049e8       $unwind$sf_check_dwork_consistency 000000018006f9e8     c1_modello_2017b_levaRetro_acc.obj
 0002:000049f0       $chain$1$sf_check_dwork_consistency 000000018006f9f0     c1_modello_2017b_levaRetro_acc.obj
 0002:00004a08       $chain$2$sf_check_dwork_consistency 000000018006fa08     c1_modello_2017b_levaRetro_acc.obj
 0002:00004a18       $unwind$sf_opaque_initialize_c1_modello_2017b_levaRetro_acc 000000018006fa18     c1_modello_2017b_levaRetro_acc.obj
 0002:00004a20       $unwind$sf_opaque_enable_c1_modello_2017b_levaRetro_acc 000000018006fa20     c1_modello_2017b_levaRetro_acc.obj
 0002:00004a28       $unwind$sf_opaque_disable_c1_modello_2017b_levaRetro_acc 000000018006fa28     c1_modello_2017b_levaRetro_acc.obj
 0002:00004a30       $unwind$sf_opaque_get_sim_state_c1_modello_2017b_levaRetro_acc 000000018006fa30     c1_modello_2017b_levaRetro_acc.obj
 0002:00004a38       $unwind$sf_opaque_set_sim_state_c1_modello_2017b_levaRetro_acc 000000018006fa38     c1_modello_2017b_levaRetro_acc.obj
 0002:00004a40       $unwind$sf_opaque_terminate_c1_modello_2017b_levaRetro_acc 000000018006fa40     c1_modello_2017b_levaRetro_acc.obj
 0002:00004a48       $chain$0$sf_opaque_terminate_c1_modello_2017b_levaRetro_acc 000000018006fa48     c1_modello_2017b_levaRetro_acc.obj
 0002:00004a5c       $chain$1$sf_opaque_terminate_c1_modello_2017b_levaRetro_acc 000000018006fa5c     c1_modello_2017b_levaRetro_acc.obj
 0002:00004a6c       $unwind$mdlProcessParameters_c1_modello_2017b_levaRetro_acc 000000018006fa6c     c1_modello_2017b_levaRetro_acc.obj
 0002:00004a74       $chain$0$mdlProcessParameters_c1_modello_2017b_levaRetro_acc 000000018006fa74     c1_modello_2017b_levaRetro_acc.obj
 0002:00004a88       $chain$1$mdlProcessParameters_c1_modello_2017b_levaRetro_acc 000000018006fa88     c1_modello_2017b_levaRetro_acc.obj
 0002:00004a9c       $chain$2$mdlProcessParameters_c1_modello_2017b_levaRetro_acc 000000018006fa9c     c1_modello_2017b_levaRetro_acc.obj
 0002:00004aac       $chain$3$mdlProcessParameters_c1_modello_2017b_levaRetro_acc 000000018006faac     c1_modello_2017b_levaRetro_acc.obj
 0002:00004abc       $unwind$sf_c1_modello_2017b_levaRetro_acc_get_testpoint_info 000000018006fabc     c1_modello_2017b_levaRetro_acc.obj
 0002:00004ac4       $unwind$sf_set_sfun_dwork_info 000000018006fac4     c1_modello_2017b_levaRetro_acc.obj
 0002:00004acc       $unwind$mdlSetWorkWidths_c1_modello_2017b_levaRetro_acc 000000018006facc     c1_modello_2017b_levaRetro_acc.obj
 0002:00004ad4       $chain$2$mdlSetWorkWidths_c1_modello_2017b_levaRetro_acc 000000018006fad4     c1_modello_2017b_levaRetro_acc.obj
 0002:00004af0       $chain$3$mdlSetWorkWidths_c1_modello_2017b_levaRetro_acc 000000018006faf0     c1_modello_2017b_levaRetro_acc.obj
 0002:00004b08       $chain$4$mdlSetWorkWidths_c1_modello_2017b_levaRetro_acc 000000018006fb08     c1_modello_2017b_levaRetro_acc.obj
 0002:00004b18       $unwind$mdlRTW_c1_modello_2017b_levaRetro_acc 000000018006fb18     c1_modello_2017b_levaRetro_acc.obj
 0002:00004b20       $unwind$mdlStart_c1_modello_2017b_levaRetro_acc 000000018006fb20     c1_modello_2017b_levaRetro_acc.obj
 0002:00004b2c       $unwind$sf_c2_modello_2017b_levaRetro_acc_get_eml_resolved_functions_info 000000018006fb2c     c2_modello_2017b_levaRetro_acc.obj
 0002:00004b34       $unwind$sf_c2_modello_2017b_levaRetro_acc_get_check_sum 000000018006fb34     c2_modello_2017b_levaRetro_acc.obj
 0002:00004b3c       $unwind$chart_debug_initialization 000000018006fb3c     c2_modello_2017b_levaRetro_acc.obj
 0002:00004b4c       $chain$4$chart_debug_initialization 000000018006fb4c     c2_modello_2017b_levaRetro_acc.obj
 0002:00004b70       $chain$5$chart_debug_initialization 000000018006fb70     c2_modello_2017b_levaRetro_acc.obj
 0002:00004b80       $unwind$chart_debug_initialize_data_addresses 000000018006fb80     c2_modello_2017b_levaRetro_acc.obj
 0002:00004b88       $chain$0$chart_debug_initialize_data_addresses 000000018006fb88     c2_modello_2017b_levaRetro_acc.obj
 0002:00004b9c       $chain$1$chart_debug_initialize_data_addresses 000000018006fb9c     c2_modello_2017b_levaRetro_acc.obj
 0002:00004bac       $unwind$initialize_c2_modello_2017b_levaRetro_acc 000000018006fbac     c2_modello_2017b_levaRetro_acc.obj
 0002:00004bb4       $unwind$enable_c2_modello_2017b_levaRetro_acc 000000018006fbb4     c2_modello_2017b_levaRetro_acc.obj
 0002:00004bbc       $unwind$disable_c2_modello_2017b_levaRetro_acc 000000018006fbbc     c2_modello_2017b_levaRetro_acc.obj
 0002:00004bc4       $unwind$c2_update_debugger_state_c2_modello_2017b_levaRetro_acc 000000018006fbc4     c2_modello_2017b_levaRetro_acc.obj
 0002:00004bd4       $unwind$get_sim_state_c2_modello_2017b_levaRetro_acc 000000018006fbd4     c2_modello_2017b_levaRetro_acc.obj
 0002:00004be0       $unwind$set_sim_state_c2_modello_2017b_levaRetro_acc 000000018006fbe0     c2_modello_2017b_levaRetro_acc.obj
 0002:00004bf0       $unwind$sf_gateway_c2_modello_2017b_levaRetro_acc 000000018006fbf0     c2_modello_2017b_levaRetro_acc.obj
 0002:00004bfc       $unwind$c2_chartstep_c2_modello_2017b_levaRetro_acc 000000018006fbfc     c2_modello_2017b_levaRetro_acc.obj
 0002:00004c24       $unwind$c2_INIT            000000018006fc24     c2_modello_2017b_levaRetro_acc.obj
 0002:00004c48       $unwind$c2_OPERATIONAL     000000018006fc48     c2_modello_2017b_levaRetro_acc.obj
 0002:00004c6c       $unwind$c2_PRE_OP          000000018006fc6c     c2_modello_2017b_levaRetro_acc.obj
 0002:00004c94       $unwind$c2_sf_marshallOut  000000018006fc94     c2_modello_2017b_levaRetro_acc.obj
 0002:00004c9c       $unwind$c2_emlrt_marshallIn 000000018006fc9c     c2_modello_2017b_levaRetro_acc.obj
 0002:00004ca8       $unwind$c2_b_emlrt_marshallIn 000000018006fca8     c2_modello_2017b_levaRetro_acc.obj
 0002:00004cb4       $unwind$c2_sf_marshallIn   000000018006fcb4     c2_modello_2017b_levaRetro_acc.obj
 0002:00004cc4       $unwind$c2_b_sf_marshallOut 000000018006fcc4     c2_modello_2017b_levaRetro_acc.obj
 0002:00004ccc       $unwind$c2_c_emlrt_marshallIn 000000018006fccc     c2_modello_2017b_levaRetro_acc.obj
 0002:00004cd4       $unwind$c2_b_sf_marshallIn 000000018006fcd4     c2_modello_2017b_levaRetro_acc.obj
 0002:00004ce0       $unwind$c2_c_sf_marshallOut 000000018006fce0     c2_modello_2017b_levaRetro_acc.obj
 0002:00004ce8       $unwind$c2_d_sf_marshallOut 000000018006fce8     c2_modello_2017b_levaRetro_acc.obj
 0002:00004cf0       $unwind$c2_e_emlrt_marshallIn 000000018006fcf0     c2_modello_2017b_levaRetro_acc.obj
 0002:00004cf8       $unwind$c2_f_emlrt_marshallIn 000000018006fcf8     c2_modello_2017b_levaRetro_acc.obj
 0002:00004d00       $unwind$c2_g_emlrt_marshallIn 000000018006fd00     c2_modello_2017b_levaRetro_acc.obj
 0002:00004d08       $unwind$c2_h_emlrt_marshallIn 000000018006fd08     c2_modello_2017b_levaRetro_acc.obj
 0002:00004d14       $unwind$c2_i_emlrt_marshallIn 000000018006fd14     c2_modello_2017b_levaRetro_acc.obj
 0002:00004d1c       $unwind$c2_j_emlrt_marshallIn 000000018006fd1c     c2_modello_2017b_levaRetro_acc.obj
 0002:00004d24       $unwind$init_simulink_io_address 000000018006fd24     c2_modello_2017b_levaRetro_acc.obj
 0002:00004d2c       $unwind$sf_c2_modello_2017b_levaRetro_acc_get_post_codegen_info 000000018006fd2c     c2_modello_2017b_levaRetro_acc.obj
 0002:00004d40       $unwind$sf_c2_modello_2017b_levaRetro_acc_get_autoinheritance_info 000000018006fd40     c2_modello_2017b_levaRetro_acc.obj
 0002:00004d68       $unwind$sf_c2_modello_2017b_levaRetro_acc_jit_fallback_info 000000018006fd68     c2_modello_2017b_levaRetro_acc.obj
 0002:00004d88       $unwind$sf_get_sim_state_info_c2_modello_2017b_levaRetro_acc 000000018006fd88     c2_modello_2017b_levaRetro_acc.obj
 0002:00004d98       $unwind$sf_check_dwork_consistency 000000018006fd98     c2_modello_2017b_levaRetro_acc.obj
 0002:00004da0       $chain$1$sf_check_dwork_consistency 000000018006fda0     c2_modello_2017b_levaRetro_acc.obj
 0002:00004db8       $chain$2$sf_check_dwork_consistency 000000018006fdb8     c2_modello_2017b_levaRetro_acc.obj
 0002:00004dc8       $unwind$sf_opaque_initialize_c2_modello_2017b_levaRetro_acc 000000018006fdc8     c2_modello_2017b_levaRetro_acc.obj
 0002:00004dd0       $unwind$sf_opaque_enable_c2_modello_2017b_levaRetro_acc 000000018006fdd0     c2_modello_2017b_levaRetro_acc.obj
 0002:00004dd8       $unwind$sf_opaque_disable_c2_modello_2017b_levaRetro_acc 000000018006fdd8     c2_modello_2017b_levaRetro_acc.obj
 0002:00004de0       $unwind$sf_opaque_get_sim_state_c2_modello_2017b_levaRetro_acc 000000018006fde0     c2_modello_2017b_levaRetro_acc.obj
 0002:00004de8       $unwind$sf_opaque_set_sim_state_c2_modello_2017b_levaRetro_acc 000000018006fde8     c2_modello_2017b_levaRetro_acc.obj
 0002:00004df0       $unwind$sf_opaque_terminate_c2_modello_2017b_levaRetro_acc 000000018006fdf0     c2_modello_2017b_levaRetro_acc.obj
 0002:00004df8       $chain$0$sf_opaque_terminate_c2_modello_2017b_levaRetro_acc 000000018006fdf8     c2_modello_2017b_levaRetro_acc.obj
 0002:00004e0c       $chain$1$sf_opaque_terminate_c2_modello_2017b_levaRetro_acc 000000018006fe0c     c2_modello_2017b_levaRetro_acc.obj
 0002:00004e1c       $unwind$mdlProcessParameters_c2_modello_2017b_levaRetro_acc 000000018006fe1c     c2_modello_2017b_levaRetro_acc.obj
 0002:00004e24       $chain$0$mdlProcessParameters_c2_modello_2017b_levaRetro_acc 000000018006fe24     c2_modello_2017b_levaRetro_acc.obj
 0002:00004e38       $chain$1$mdlProcessParameters_c2_modello_2017b_levaRetro_acc 000000018006fe38     c2_modello_2017b_levaRetro_acc.obj
 0002:00004e4c       $chain$2$mdlProcessParameters_c2_modello_2017b_levaRetro_acc 000000018006fe4c     c2_modello_2017b_levaRetro_acc.obj
 0002:00004e5c       $chain$3$mdlProcessParameters_c2_modello_2017b_levaRetro_acc 000000018006fe5c     c2_modello_2017b_levaRetro_acc.obj
 0002:00004e6c       $unwind$sf_c2_modello_2017b_levaRetro_acc_get_testpoint_info 000000018006fe6c     c2_modello_2017b_levaRetro_acc.obj
 0002:00004e74       $unwind$sf_set_sfun_dwork_info 000000018006fe74     c2_modello_2017b_levaRetro_acc.obj
 0002:00004e7c       $unwind$mdlSetWorkWidths_c2_modello_2017b_levaRetro_acc 000000018006fe7c     c2_modello_2017b_levaRetro_acc.obj
 0002:00004e84       $chain$2$mdlSetWorkWidths_c2_modello_2017b_levaRetro_acc 000000018006fe84     c2_modello_2017b_levaRetro_acc.obj
 0002:00004ea0       $chain$3$mdlSetWorkWidths_c2_modello_2017b_levaRetro_acc 000000018006fea0     c2_modello_2017b_levaRetro_acc.obj
 0002:00004eb8       $chain$4$mdlSetWorkWidths_c2_modello_2017b_levaRetro_acc 000000018006feb8     c2_modello_2017b_levaRetro_acc.obj
 0002:00004ec8       $unwind$mdlRTW_c2_modello_2017b_levaRetro_acc 000000018006fec8     c2_modello_2017b_levaRetro_acc.obj
 0002:00004ed0       $unwind$mdlStart_c2_modello_2017b_levaRetro_acc 000000018006fed0     c2_modello_2017b_levaRetro_acc.obj
 0002:00004edc       $unwind$sf_c3_modello_2017b_levaRetro_acc_get_eml_resolved_functions_info 000000018006fedc     c3_modello_2017b_levaRetro_acc.obj
 0002:00004ee4       $unwind$sf_c3_modello_2017b_levaRetro_acc_get_check_sum 000000018006fee4     c3_modello_2017b_levaRetro_acc.obj
 0002:00004eec       $unwind$chart_debug_initialization 000000018006feec     c3_modello_2017b_levaRetro_acc.obj
 0002:00004efc       $chain$4$chart_debug_initialization 000000018006fefc     c3_modello_2017b_levaRetro_acc.obj
 0002:00004f20       $chain$5$chart_debug_initialization 000000018006ff20     c3_modello_2017b_levaRetro_acc.obj
 0002:00004f30       $unwind$chart_debug_initialize_data_addresses 000000018006ff30     c3_modello_2017b_levaRetro_acc.obj
 0002:00004f38       $chain$0$chart_debug_initialize_data_addresses 000000018006ff38     c3_modello_2017b_levaRetro_acc.obj
 0002:00004f4c       $chain$1$chart_debug_initialize_data_addresses 000000018006ff4c     c3_modello_2017b_levaRetro_acc.obj
 0002:00004f5c       $unwind$initialize_c3_modello_2017b_levaRetro_acc 000000018006ff5c     c3_modello_2017b_levaRetro_acc.obj
 0002:00004f64       $unwind$enable_c3_modello_2017b_levaRetro_acc 000000018006ff64     c3_modello_2017b_levaRetro_acc.obj
 0002:00004f6c       $unwind$disable_c3_modello_2017b_levaRetro_acc 000000018006ff6c     c3_modello_2017b_levaRetro_acc.obj
 0002:00004f74       $unwind$c3_update_debugger_state_c3_modello_2017b_levaRetro_acc 000000018006ff74     c3_modello_2017b_levaRetro_acc.obj
 0002:00004f84       $unwind$get_sim_state_c3_modello_2017b_levaRetro_acc 000000018006ff84     c3_modello_2017b_levaRetro_acc.obj
 0002:00004f94       $unwind$set_sim_state_c3_modello_2017b_levaRetro_acc 000000018006ff94     c3_modello_2017b_levaRetro_acc.obj
 0002:00004fa4       $unwind$sf_gateway_c3_modello_2017b_levaRetro_acc 000000018006ffa4     c3_modello_2017b_levaRetro_acc.obj
 0002:00004fb0       $chain$0$sf_gateway_c3_modello_2017b_levaRetro_acc 000000018006ffb0     c3_modello_2017b_levaRetro_acc.obj
 0002:00004fc4       $chain$1$sf_gateway_c3_modello_2017b_levaRetro_acc 000000018006ffc4     c3_modello_2017b_levaRetro_acc.obj
 0002:00004fd4       $unwind$c3_DS402StateMachine 000000018006ffd4     c3_modello_2017b_levaRetro_acc.obj
 0002:00004ffc       $unwind$c3_exit_internal_DS402StateMachine 000000018006fffc     c3_modello_2017b_levaRetro_acc.obj
 0002:00005008       $unwind$c3_enter_atomic_fault_reaction_active 0000000180070008     c3_modello_2017b_levaRetro_acc.obj
 0002:00005014       $unwind$c3_enter_atomic_fault 0000000180070014     c3_modello_2017b_levaRetro_acc.obj
 0002:00005020       $unwind$c3_reset_fault_logic 0000000180070020     c3_modello_2017b_levaRetro_acc.obj
 0002:00005040       $unwind$c3_not_ready_to_switch_on 0000000180070040     c3_modello_2017b_levaRetro_acc.obj
 0002:0000505c       $unwind$c3_enter_atomic_switch_on_disabled 000000018007005c     c3_modello_2017b_levaRetro_acc.obj
 0002:00005068       $unwind$c3_switch_on_disabled 0000000180070068     c3_modello_2017b_levaRetro_acc.obj
 0002:00005090       $unwind$c3_enter_atomic_ready_to_switch_on 0000000180070090     c3_modello_2017b_levaRetro_acc.obj
 0002:0000509c       $unwind$c3_ready_to_switch_on 000000018007009c     c3_modello_2017b_levaRetro_acc.obj
 0002:000050c4       $unwind$c3_enter_atomic_quick_stop_active 00000001800700c4     c3_modello_2017b_levaRetro_acc.obj
 0002:000050d0       $unwind$c3_quick_stop_active 00000001800700d0     c3_modello_2017b_levaRetro_acc.obj
 0002:000050f4       $unwind$c3_enter_atomic_switched_on 00000001800700f4     c3_modello_2017b_levaRetro_acc.obj
 0002:00005100       $unwind$c3_switched_on     0000000180070100     c3_modello_2017b_levaRetro_acc.obj
 0002:00005128       $unwind$c3_enter_atomic_operation_enabled 0000000180070128     c3_modello_2017b_levaRetro_acc.obj
 0002:00005134       $unwind$c3_operation_enabled 0000000180070134     c3_modello_2017b_levaRetro_acc.obj
 0002:0000515c       $unwind$c3_sf_marshallOut  000000018007015c     c3_modello_2017b_levaRetro_acc.obj
 0002:00005164       $unwind$c3_emlrt_marshallIn 0000000180070164     c3_modello_2017b_levaRetro_acc.obj
 0002:00005170       $unwind$c3_b_emlrt_marshallIn 0000000180070170     c3_modello_2017b_levaRetro_acc.obj
 0002:0000517c       $unwind$c3_sf_marshallIn   000000018007017c     c3_modello_2017b_levaRetro_acc.obj
 0002:0000518c       $unwind$c3_b_sf_marshallOut 000000018007018c     c3_modello_2017b_levaRetro_acc.obj
 0002:00005194       $unwind$c3_c_emlrt_marshallIn 0000000180070194     c3_modello_2017b_levaRetro_acc.obj
 0002:0000519c       $unwind$c3_b_sf_marshallIn 000000018007019c     c3_modello_2017b_levaRetro_acc.obj
 0002:000051a8       $unwind$c3_e_emlrt_marshallIn 00000001800701a8     c3_modello_2017b_levaRetro_acc.obj
 0002:000051b0       $unwind$c3_f_emlrt_marshallIn 00000001800701b0     c3_modello_2017b_levaRetro_acc.obj
 0002:000051b8       $unwind$c3_e_sf_marshallOut 00000001800701b8     c3_modello_2017b_levaRetro_acc.obj
 0002:000051c0       $unwind$c3_f_sf_marshallOut 00000001800701c0     c3_modello_2017b_levaRetro_acc.obj
 0002:000051c8       $unwind$c3_g_emlrt_marshallIn 00000001800701c8     c3_modello_2017b_levaRetro_acc.obj
 0002:000051d0       $unwind$c3_h_emlrt_marshallIn 00000001800701d0     c3_modello_2017b_levaRetro_acc.obj
 0002:000051dc       $unwind$c3_i_emlrt_marshallIn 00000001800701dc     c3_modello_2017b_levaRetro_acc.obj
 0002:000051e4       $unwind$c3_j_emlrt_marshallIn 00000001800701e4     c3_modello_2017b_levaRetro_acc.obj
 0002:000051ec       $unwind$init_simulink_io_address 00000001800701ec     c3_modello_2017b_levaRetro_acc.obj
 0002:000051f4       $unwind$sf_c3_modello_2017b_levaRetro_acc_get_post_codegen_info 00000001800701f4     c3_modello_2017b_levaRetro_acc.obj
 0002:00005208       $unwind$sf_c3_modello_2017b_levaRetro_acc_get_autoinheritance_info 0000000180070208     c3_modello_2017b_levaRetro_acc.obj
 0002:00005234       $unwind$sf_c3_modello_2017b_levaRetro_acc_jit_fallback_info 0000000180070234     c3_modello_2017b_levaRetro_acc.obj
 0002:00005254       $unwind$sf_get_sim_state_info_c3_modello_2017b_levaRetro_acc 0000000180070254     c3_modello_2017b_levaRetro_acc.obj
 0002:00005264       $unwind$sf_check_dwork_consistency 0000000180070264     c3_modello_2017b_levaRetro_acc.obj
 0002:0000526c       $chain$1$sf_check_dwork_consistency 000000018007026c     c3_modello_2017b_levaRetro_acc.obj
 0002:00005284       $chain$2$sf_check_dwork_consistency 0000000180070284     c3_modello_2017b_levaRetro_acc.obj
 0002:00005294       $unwind$sf_opaque_initialize_c3_modello_2017b_levaRetro_acc 0000000180070294     c3_modello_2017b_levaRetro_acc.obj
 0002:0000529c       $unwind$sf_opaque_enable_c3_modello_2017b_levaRetro_acc 000000018007029c     c3_modello_2017b_levaRetro_acc.obj
 0002:000052a4       $unwind$sf_opaque_disable_c3_modello_2017b_levaRetro_acc 00000001800702a4     c3_modello_2017b_levaRetro_acc.obj
 0002:000052ac       $unwind$sf_opaque_get_sim_state_c3_modello_2017b_levaRetro_acc 00000001800702ac     c3_modello_2017b_levaRetro_acc.obj
 0002:000052b4       $unwind$sf_opaque_set_sim_state_c3_modello_2017b_levaRetro_acc 00000001800702b4     c3_modello_2017b_levaRetro_acc.obj
 0002:000052bc       $unwind$sf_opaque_terminate_c3_modello_2017b_levaRetro_acc 00000001800702bc     c3_modello_2017b_levaRetro_acc.obj
 0002:000052c4       $chain$0$sf_opaque_terminate_c3_modello_2017b_levaRetro_acc 00000001800702c4     c3_modello_2017b_levaRetro_acc.obj
 0002:000052d8       $chain$1$sf_opaque_terminate_c3_modello_2017b_levaRetro_acc 00000001800702d8     c3_modello_2017b_levaRetro_acc.obj
 0002:000052e8       $unwind$mdlProcessParameters_c3_modello_2017b_levaRetro_acc 00000001800702e8     c3_modello_2017b_levaRetro_acc.obj
 0002:000052f0       $chain$0$mdlProcessParameters_c3_modello_2017b_levaRetro_acc 00000001800702f0     c3_modello_2017b_levaRetro_acc.obj
 0002:00005304       $chain$1$mdlProcessParameters_c3_modello_2017b_levaRetro_acc 0000000180070304     c3_modello_2017b_levaRetro_acc.obj
 0002:00005318       $chain$2$mdlProcessParameters_c3_modello_2017b_levaRetro_acc 0000000180070318     c3_modello_2017b_levaRetro_acc.obj
 0002:00005328       $chain$3$mdlProcessParameters_c3_modello_2017b_levaRetro_acc 0000000180070328     c3_modello_2017b_levaRetro_acc.obj
 0002:00005338       $unwind$sf_c3_modello_2017b_levaRetro_acc_get_testpoint_info 0000000180070338     c3_modello_2017b_levaRetro_acc.obj
 0002:00005340       $unwind$sf_set_sfun_dwork_info 0000000180070340     c3_modello_2017b_levaRetro_acc.obj
 0002:00005348       $unwind$mdlSetWorkWidths_c3_modello_2017b_levaRetro_acc 0000000180070348     c3_modello_2017b_levaRetro_acc.obj
 0002:00005350       $chain$2$mdlSetWorkWidths_c3_modello_2017b_levaRetro_acc 0000000180070350     c3_modello_2017b_levaRetro_acc.obj
 0002:0000536c       $chain$3$mdlSetWorkWidths_c3_modello_2017b_levaRetro_acc 000000018007036c     c3_modello_2017b_levaRetro_acc.obj
 0002:00005384       $chain$4$mdlSetWorkWidths_c3_modello_2017b_levaRetro_acc 0000000180070384     c3_modello_2017b_levaRetro_acc.obj
 0002:00005394       $unwind$mdlRTW_c3_modello_2017b_levaRetro_acc 0000000180070394     c3_modello_2017b_levaRetro_acc.obj
 0002:0000539c       $unwind$mdlStart_c3_modello_2017b_levaRetro_acc 000000018007039c     c3_modello_2017b_levaRetro_acc.obj
 0002:000053a8       $unwind$sf_c27_modello_2017b_levaRetro_acc_get_eml_resolved_functions_info 00000001800703a8     c27_modello_2017b_levaRetro_acc.obj
 0002:000053b0       $unwind$sf_c27_modello_2017b_levaRetro_acc_get_check_sum 00000001800703b0     c27_modello_2017b_levaRetro_acc.obj
 0002:000053b8       $unwind$chart_debug_initialization 00000001800703b8     c27_modello_2017b_levaRetro_acc.obj
 0002:000053c4       $chain$5$chart_debug_initialization 00000001800703c4     c27_modello_2017b_levaRetro_acc.obj
 0002:000053ec       $chain$6$chart_debug_initialization 00000001800703ec     c27_modello_2017b_levaRetro_acc.obj
 0002:000053fc       $unwind$chart_debug_initialize_data_addresses 00000001800703fc     c27_modello_2017b_levaRetro_acc.obj
 0002:00005404       $chain$0$chart_debug_initialize_data_addresses 0000000180070404     c27_modello_2017b_levaRetro_acc.obj
 0002:00005418       $chain$1$chart_debug_initialize_data_addresses 0000000180070418     c27_modello_2017b_levaRetro_acc.obj
 0002:00005428       $unwind$initialize_c27_modello_2017b_levaRetro_acc 0000000180070428     c27_modello_2017b_levaRetro_acc.obj
 0002:00005430       $unwind$enable_c27_modello_2017b_levaRetro_acc 0000000180070430     c27_modello_2017b_levaRetro_acc.obj
 0002:00005438       $unwind$disable_c27_modello_2017b_levaRetro_acc 0000000180070438     c27_modello_2017b_levaRetro_acc.obj
 0002:00005440       $unwind$c27_update_debugger_state_c27_modello_2017b_levaRetro_acc 0000000180070440     c27_modello_2017b_levaRetro_acc.obj
 0002:00005450       $unwind$get_sim_state_c27_modello_2017b_levaRetro_acc 0000000180070450     c27_modello_2017b_levaRetro_acc.obj
 0002:00005460       $unwind$set_sim_state_c27_modello_2017b_levaRetro_acc 0000000180070460     c27_modello_2017b_levaRetro_acc.obj
 0002:0000547c       $unwind$sf_gateway_c27_modello_2017b_levaRetro_acc 000000018007047c     c27_modello_2017b_levaRetro_acc.obj
 0002:00005484       $unwind$c27_chartstep_c27_modello_2017b_levaRetro_acc 0000000180070484     c27_modello_2017b_levaRetro_acc.obj
 0002:000054ac       $unwind$c27_DRIVES_ACTIVE  00000001800704ac     c27_modello_2017b_levaRetro_acc.obj
 0002:000054cc       $unwind$c27_ACTIVATE_DRIVES 00000001800704cc     c27_modello_2017b_levaRetro_acc.obj
 0002:000054ec       $unwind$c27_sf_marshallOut 00000001800704ec     c27_modello_2017b_levaRetro_acc.obj
 0002:000054f4       $unwind$c27_emlrt_marshallIn 00000001800704f4     c27_modello_2017b_levaRetro_acc.obj
 0002:00005500       $unwind$c27_b_emlrt_marshallIn 0000000180070500     c27_modello_2017b_levaRetro_acc.obj
 0002:0000550c       $unwind$c27_sf_marshallIn  000000018007050c     c27_modello_2017b_levaRetro_acc.obj
 0002:0000551c       $unwind$c27_b_sf_marshallOut 000000018007051c     c27_modello_2017b_levaRetro_acc.obj
 0002:00005524       $unwind$c27_c_emlrt_marshallIn 0000000180070524     c27_modello_2017b_levaRetro_acc.obj
 0002:0000552c       $unwind$c27_b_sf_marshallIn 000000018007052c     c27_modello_2017b_levaRetro_acc.obj
 0002:00005538       $unwind$c27_d_sf_marshallOut 0000000180070538     c27_modello_2017b_levaRetro_acc.obj
 0002:00005540       $unwind$c27_e_emlrt_marshallIn 0000000180070540     c27_modello_2017b_levaRetro_acc.obj
 0002:00005548       $unwind$c27_f_emlrt_marshallIn 0000000180070548     c27_modello_2017b_levaRetro_acc.obj
 0002:00005550       $unwind$c27_g_emlrt_marshallIn 0000000180070550     c27_modello_2017b_levaRetro_acc.obj
 0002:00005564       $unwind$c27_h_emlrt_marshallIn 0000000180070564     c27_modello_2017b_levaRetro_acc.obj
 0002:00005578       $unwind$c27_i_emlrt_marshallIn 0000000180070578     c27_modello_2017b_levaRetro_acc.obj
 0002:00005580       $unwind$c27_j_emlrt_marshallIn 0000000180070580     c27_modello_2017b_levaRetro_acc.obj
 0002:00005588       $unwind$init_simulink_io_address 0000000180070588     c27_modello_2017b_levaRetro_acc.obj
 0002:00005590       $unwind$sf_c27_modello_2017b_levaRetro_acc_get_post_codegen_info 0000000180070590     c27_modello_2017b_levaRetro_acc.obj
 0002:000055a4       $unwind$sf_c27_modello_2017b_levaRetro_acc_get_autoinheritance_info 00000001800705a4     c27_modello_2017b_levaRetro_acc.obj
 0002:000055d4       $unwind$sf_c27_modello_2017b_levaRetro_acc_jit_fallback_info 00000001800705d4     c27_modello_2017b_levaRetro_acc.obj
 0002:000055f4       $unwind$sf_get_sim_state_info_c27_modello_2017b_levaRetro_acc 00000001800705f4     c27_modello_2017b_levaRetro_acc.obj
 0002:00005604       $unwind$sf_check_dwork_consistency 0000000180070604     c27_modello_2017b_levaRetro_acc.obj
 0002:0000560c       $chain$1$sf_check_dwork_consistency 000000018007060c     c27_modello_2017b_levaRetro_acc.obj
 0002:00005624       $chain$2$sf_check_dwork_consistency 0000000180070624     c27_modello_2017b_levaRetro_acc.obj
 0002:00005634       $unwind$sf_opaque_initialize_c27_modello_2017b_levaRetro_acc 0000000180070634     c27_modello_2017b_levaRetro_acc.obj
 0002:0000563c       $unwind$sf_opaque_enable_c27_modello_2017b_levaRetro_acc 000000018007063c     c27_modello_2017b_levaRetro_acc.obj
 0002:00005644       $unwind$sf_opaque_disable_c27_modello_2017b_levaRetro_acc 0000000180070644     c27_modello_2017b_levaRetro_acc.obj
 0002:0000564c       $unwind$sf_opaque_get_sim_state_c27_modello_2017b_levaRetro_acc 000000018007064c     c27_modello_2017b_levaRetro_acc.obj
 0002:00005654       $unwind$sf_opaque_set_sim_state_c27_modello_2017b_levaRetro_acc 0000000180070654     c27_modello_2017b_levaRetro_acc.obj
 0002:0000565c       $unwind$sf_opaque_terminate_c27_modello_2017b_levaRetro_acc 000000018007065c     c27_modello_2017b_levaRetro_acc.obj
 0002:00005664       $chain$0$sf_opaque_terminate_c27_modello_2017b_levaRetro_acc 0000000180070664     c27_modello_2017b_levaRetro_acc.obj
 0002:00005678       $chain$1$sf_opaque_terminate_c27_modello_2017b_levaRetro_acc 0000000180070678     c27_modello_2017b_levaRetro_acc.obj
 0002:00005688       $unwind$mdlProcessParameters_c27_modello_2017b_levaRetro_acc 0000000180070688     c27_modello_2017b_levaRetro_acc.obj
 0002:00005690       $chain$0$mdlProcessParameters_c27_modello_2017b_levaRetro_acc 0000000180070690     c27_modello_2017b_levaRetro_acc.obj
 0002:000056a4       $chain$1$mdlProcessParameters_c27_modello_2017b_levaRetro_acc 00000001800706a4     c27_modello_2017b_levaRetro_acc.obj
 0002:000056b8       $chain$2$mdlProcessParameters_c27_modello_2017b_levaRetro_acc 00000001800706b8     c27_modello_2017b_levaRetro_acc.obj
 0002:000056c8       $chain$3$mdlProcessParameters_c27_modello_2017b_levaRetro_acc 00000001800706c8     c27_modello_2017b_levaRetro_acc.obj
 0002:000056d8       $unwind$sf_c27_modello_2017b_levaRetro_acc_get_testpoint_info 00000001800706d8     c27_modello_2017b_levaRetro_acc.obj
 0002:000056e0       $unwind$sf_set_sfun_dwork_info 00000001800706e0     c27_modello_2017b_levaRetro_acc.obj
 0002:000056e8       $unwind$mdlSetWorkWidths_c27_modello_2017b_levaRetro_acc 00000001800706e8     c27_modello_2017b_levaRetro_acc.obj
 0002:000056f0       $chain$2$mdlSetWorkWidths_c27_modello_2017b_levaRetro_acc 00000001800706f0     c27_modello_2017b_levaRetro_acc.obj
 0002:0000570c       $chain$3$mdlSetWorkWidths_c27_modello_2017b_levaRetro_acc 000000018007070c     c27_modello_2017b_levaRetro_acc.obj
 0002:00005724       $chain$4$mdlSetWorkWidths_c27_modello_2017b_levaRetro_acc 0000000180070724     c27_modello_2017b_levaRetro_acc.obj
 0002:00005734       $unwind$mdlRTW_c27_modello_2017b_levaRetro_acc 0000000180070734     c27_modello_2017b_levaRetro_acc.obj
 0002:0000573c       $unwind$mdlStart_c27_modello_2017b_levaRetro_acc 000000018007073c     c27_modello_2017b_levaRetro_acc.obj
 0002:00005748       $unwind$sf_c52_modello_2017b_levaRetro_acc_get_eml_resolved_functions_info 0000000180070748     c52_modello_2017b_levaRetro_acc.obj
 0002:00005750       $unwind$sf_c52_modello_2017b_levaRetro_acc_get_check_sum 0000000180070750     c52_modello_2017b_levaRetro_acc.obj
 0002:00005758       $unwind$chart_debug_initialization 0000000180070758     c52_modello_2017b_levaRetro_acc.obj
 0002:00005764       $chain$6$chart_debug_initialization 0000000180070764     c52_modello_2017b_levaRetro_acc.obj
 0002:00005790       $chain$7$chart_debug_initialization 0000000180070790     c52_modello_2017b_levaRetro_acc.obj
 0002:000057a0       $unwind$chart_debug_initialize_data_addresses 00000001800707a0     c52_modello_2017b_levaRetro_acc.obj
 0002:000057a8       $chain$0$chart_debug_initialize_data_addresses 00000001800707a8     c52_modello_2017b_levaRetro_acc.obj
 0002:000057bc       $chain$1$chart_debug_initialize_data_addresses 00000001800707bc     c52_modello_2017b_levaRetro_acc.obj
 0002:000057cc       $unwind$initialize_c52_modello_2017b_levaRetro_acc 00000001800707cc     c52_modello_2017b_levaRetro_acc.obj
 0002:000057d8       $unwind$initialize_params_c52_modello_2017b_levaRetro_acc 00000001800707d8     c52_modello_2017b_levaRetro_acc.obj
 0002:000057fc       $unwind$enable_c52_modello_2017b_levaRetro_acc 00000001800707fc     c52_modello_2017b_levaRetro_acc.obj
 0002:00005804       $unwind$disable_c52_modello_2017b_levaRetro_acc 0000000180070804     c52_modello_2017b_levaRetro_acc.obj
 0002:0000580c       $unwind$c52_update_debugger_state_c52_modello_2017b_levaRetro_acc 000000018007080c     c52_modello_2017b_levaRetro_acc.obj
 0002:0000581c       $unwind$get_sim_state_c52_modello_2017b_levaRetro_acc 000000018007081c     c52_modello_2017b_levaRetro_acc.obj
 0002:0000582c       $unwind$set_sim_state_c52_modello_2017b_levaRetro_acc 000000018007082c     c52_modello_2017b_levaRetro_acc.obj
 0002:00005838       $unwind$sf_gateway_c52_modello_2017b_levaRetro_acc 0000000180070838     c52_modello_2017b_levaRetro_acc.obj
 0002:00005844       $chain$0$sf_gateway_c52_modello_2017b_levaRetro_acc 0000000180070844     c52_modello_2017b_levaRetro_acc.obj
 0002:00005858       $chain$1$sf_gateway_c52_modello_2017b_levaRetro_acc 0000000180070858     c52_modello_2017b_levaRetro_acc.obj
 0002:00005868       $unwind$c52_asse_x_dyn     0000000180070868     c52_modello_2017b_levaRetro_acc.obj
 0002:0000587c       $chain$1$c52_asse_x_dyn    000000018007087c     c52_modello_2017b_levaRetro_acc.obj
 0002:00005894       $chain$2$c52_asse_x_dyn    0000000180070894     c52_modello_2017b_levaRetro_acc.obj
 0002:000058a8       $chain$3$c52_asse_x_dyn    00000001800708a8     c52_modello_2017b_levaRetro_acc.obj
 0002:000058b8       $chain$4$c52_asse_x_dyn    00000001800708b8     c52_modello_2017b_levaRetro_acc.obj
 0002:000058c8       $unwind$c52_exit_internal_asse_x_dyn 00000001800708c8     c52_modello_2017b_levaRetro_acc.obj
 0002:000058d4       $unwind$c52_muro_selezione_x 00000001800708d4     c52_modello_2017b_levaRetro_acc.obj
 0002:000058e0       $chain$0$c52_muro_selezione_x 00000001800708e0     c52_modello_2017b_levaRetro_acc.obj
 0002:000058f4       $chain$1$c52_muro_selezione_x 00000001800708f4     c52_modello_2017b_levaRetro_acc.obj
 0002:00005904       $unwind$c52_rigidezza_finale 0000000180070904     c52_modello_2017b_levaRetro_acc.obj
 0002:00005920       $chain$1$c52_rigidezza_finale 0000000180070920     c52_modello_2017b_levaRetro_acc.obj
 0002:00005934       $unwind$c52_sf_marshallOut 0000000180070934     c52_modello_2017b_levaRetro_acc.obj
 0002:0000593c       $unwind$c52_emlrt_marshallIn 000000018007093c     c52_modello_2017b_levaRetro_acc.obj
 0002:00005948       $unwind$c52_b_emlrt_marshallIn 0000000180070948     c52_modello_2017b_levaRetro_acc.obj
 0002:00005954       $unwind$c52_sf_marshallIn  0000000180070954     c52_modello_2017b_levaRetro_acc.obj
 0002:00005964       $unwind$c52_gearshift_grid_r_dyn 0000000180070964     c52_modello_2017b_levaRetro_acc.obj
 0002:0000597c       $unwind$c52_d_emlrt_marshallIn 000000018007097c     c52_modello_2017b_levaRetro_acc.obj
 0002:00005984       $unwind$c52_e_emlrt_marshallIn 0000000180070984     c52_modello_2017b_levaRetro_acc.obj
 0002:0000598c       $unwind$c52_d_sf_marshallOut 000000018007098c     c52_modello_2017b_levaRetro_acc.obj
 0002:00005994       $unwind$c52_e_sf_marshallOut 0000000180070994     c52_modello_2017b_levaRetro_acc.obj
 0002:000059a4       $unwind$c52_f_emlrt_marshallIn 00000001800709a4     c52_modello_2017b_levaRetro_acc.obj
 0002:000059bc       $unwind$c52_d_sf_marshallIn 00000001800709bc     c52_modello_2017b_levaRetro_acc.obj
 0002:000059d4       $unwind$c52_g_emlrt_marshallIn 00000001800709d4     c52_modello_2017b_levaRetro_acc.obj
 0002:000059dc       $unwind$c52_h_emlrt_marshallIn 00000001800709dc     c52_modello_2017b_levaRetro_acc.obj
 0002:000059e4       $unwind$init_simulink_io_address 00000001800709e4     c52_modello_2017b_levaRetro_acc.obj
 0002:000059ec       $unwind$sf_c52_modello_2017b_levaRetro_acc_get_post_codegen_info 00000001800709ec     c52_modello_2017b_levaRetro_acc.obj
 0002:00005a00       $unwind$sf_c52_modello_2017b_levaRetro_acc_get_autoinheritance_info 0000000180070a00     c52_modello_2017b_levaRetro_acc.obj
 0002:00005a2c       $unwind$sf_c52_modello_2017b_levaRetro_acc_jit_fallback_info 0000000180070a2c     c52_modello_2017b_levaRetro_acc.obj
 0002:00005a4c       $unwind$sf_get_sim_state_info_c52_modello_2017b_levaRetro_acc 0000000180070a4c     c52_modello_2017b_levaRetro_acc.obj
 0002:00005a5c       $unwind$sf_check_dwork_consistency 0000000180070a5c     c52_modello_2017b_levaRetro_acc.obj
 0002:00005a64       $chain$1$sf_check_dwork_consistency 0000000180070a64     c52_modello_2017b_levaRetro_acc.obj
 0002:00005a7c       $chain$2$sf_check_dwork_consistency 0000000180070a7c     c52_modello_2017b_levaRetro_acc.obj
 0002:00005a8c       $unwind$sf_opaque_initialize_c52_modello_2017b_levaRetro_acc 0000000180070a8c     c52_modello_2017b_levaRetro_acc.obj
 0002:00005a94       $unwind$sf_opaque_enable_c52_modello_2017b_levaRetro_acc 0000000180070a94     c52_modello_2017b_levaRetro_acc.obj
 0002:00005a9c       $unwind$sf_opaque_disable_c52_modello_2017b_levaRetro_acc 0000000180070a9c     c52_modello_2017b_levaRetro_acc.obj
 0002:00005aa4       $unwind$sf_opaque_get_sim_state_c52_modello_2017b_levaRetro_acc 0000000180070aa4     c52_modello_2017b_levaRetro_acc.obj
 0002:00005aac       $unwind$sf_opaque_set_sim_state_c52_modello_2017b_levaRetro_acc 0000000180070aac     c52_modello_2017b_levaRetro_acc.obj
 0002:00005ab4       $unwind$sf_opaque_terminate_c52_modello_2017b_levaRetro_acc 0000000180070ab4     c52_modello_2017b_levaRetro_acc.obj
 0002:00005abc       $chain$0$sf_opaque_terminate_c52_modello_2017b_levaRetro_acc 0000000180070abc     c52_modello_2017b_levaRetro_acc.obj
 0002:00005ad0       $chain$1$sf_opaque_terminate_c52_modello_2017b_levaRetro_acc 0000000180070ad0     c52_modello_2017b_levaRetro_acc.obj
 0002:00005ae0       $unwind$mdlProcessParameters_c52_modello_2017b_levaRetro_acc 0000000180070ae0     c52_modello_2017b_levaRetro_acc.obj
 0002:00005ae8       $chain$0$mdlProcessParameters_c52_modello_2017b_levaRetro_acc 0000000180070ae8     c52_modello_2017b_levaRetro_acc.obj
 0002:00005afc       $chain$1$mdlProcessParameters_c52_modello_2017b_levaRetro_acc 0000000180070afc     c52_modello_2017b_levaRetro_acc.obj
 0002:00005b10       $chain$2$mdlProcessParameters_c52_modello_2017b_levaRetro_acc 0000000180070b10     c52_modello_2017b_levaRetro_acc.obj
 0002:00005b20       $chain$3$mdlProcessParameters_c52_modello_2017b_levaRetro_acc 0000000180070b20     c52_modello_2017b_levaRetro_acc.obj
 0002:00005b30       $unwind$sf_c52_modello_2017b_levaRetro_acc_get_testpoint_info 0000000180070b30     c52_modello_2017b_levaRetro_acc.obj
 0002:00005b38       $unwind$sf_set_sfun_dwork_info 0000000180070b38     c52_modello_2017b_levaRetro_acc.obj
 0002:00005b40       $unwind$mdlSetWorkWidths_c52_modello_2017b_levaRetro_acc 0000000180070b40     c52_modello_2017b_levaRetro_acc.obj
 0002:00005b4c       $chain$0$mdlSetWorkWidths_c52_modello_2017b_levaRetro_acc 0000000180070b4c     c52_modello_2017b_levaRetro_acc.obj
 0002:00005b60       $chain$3$mdlSetWorkWidths_c52_modello_2017b_levaRetro_acc 0000000180070b60     c52_modello_2017b_levaRetro_acc.obj
 0002:00005b7c       $chain$4$mdlSetWorkWidths_c52_modello_2017b_levaRetro_acc 0000000180070b7c     c52_modello_2017b_levaRetro_acc.obj
 0002:00005b94       $chain$5$mdlSetWorkWidths_c52_modello_2017b_levaRetro_acc 0000000180070b94     c52_modello_2017b_levaRetro_acc.obj
 0002:00005ba4       $chain$6$mdlSetWorkWidths_c52_modello_2017b_levaRetro_acc 0000000180070ba4     c52_modello_2017b_levaRetro_acc.obj
 0002:00005bb4       $unwind$mdlRTW_c52_modello_2017b_levaRetro_acc 0000000180070bb4     c52_modello_2017b_levaRetro_acc.obj
 0002:00005bbc       $unwind$mdlStart_c52_modello_2017b_levaRetro_acc 0000000180070bbc     c52_modello_2017b_levaRetro_acc.obj
 0002:00005bc8       $unwind$sf_c152_modello_2017b_levaRetro_acc_get_eml_resolved_functions_info 0000000180070bc8     c152_modello_2017b_levaRetro_acc.obj
 0002:00005bd0       $unwind$sf_c152_modello_2017b_levaRetro_acc_get_check_sum 0000000180070bd0     c152_modello_2017b_levaRetro_acc.obj
 0002:00005bd8       $unwind$chart_debug_initialization 0000000180070bd8     c152_modello_2017b_levaRetro_acc.obj
 0002:00005be4       $chain$6$chart_debug_initialization 0000000180070be4     c152_modello_2017b_levaRetro_acc.obj
 0002:00005c10       $chain$7$chart_debug_initialization 0000000180070c10     c152_modello_2017b_levaRetro_acc.obj
 0002:00005c20       $unwind$chart_debug_initialize_data_addresses 0000000180070c20     c152_modello_2017b_levaRetro_acc.obj
 0002:00005c28       $chain$0$chart_debug_initialize_data_addresses 0000000180070c28     c152_modello_2017b_levaRetro_acc.obj
 0002:00005c3c       $chain$1$chart_debug_initialize_data_addresses 0000000180070c3c     c152_modello_2017b_levaRetro_acc.obj
 0002:00005c4c       $unwind$initialize_c152_modello_2017b_levaRetro_acc 0000000180070c4c     c152_modello_2017b_levaRetro_acc.obj
 0002:00005c58       $unwind$initialize_params_c152_modello_2017b_levaRetro_acc 0000000180070c58     c152_modello_2017b_levaRetro_acc.obj
 0002:00005c7c       $unwind$enable_c152_modello_2017b_levaRetro_acc 0000000180070c7c     c152_modello_2017b_levaRetro_acc.obj
 0002:00005c84       $unwind$disable_c152_modello_2017b_levaRetro_acc 0000000180070c84     c152_modello_2017b_levaRetro_acc.obj
 0002:00005c8c       $unwind$c152_update_debugger_state_c152_modello_2017b_levaRetro_acc 0000000180070c8c     c152_modello_2017b_levaRetro_acc.obj
 0002:00005c9c       $unwind$get_sim_state_c152_modello_2017b_levaRetro_acc 0000000180070c9c     c152_modello_2017b_levaRetro_acc.obj
 0002:00005cac       $unwind$set_sim_state_c152_modello_2017b_levaRetro_acc 0000000180070cac     c152_modello_2017b_levaRetro_acc.obj
 0002:00005cb8       $unwind$sf_gateway_c152_modello_2017b_levaRetro_acc 0000000180070cb8     c152_modello_2017b_levaRetro_acc.obj
 0002:00005cc0       $unwind$c152_chartstep_c152_modello_2017b_levaRetro_acc 0000000180070cc0     c152_modello_2017b_levaRetro_acc.obj
 0002:00005cd0       $chain$1$c152_chartstep_c152_modello_2017b_levaRetro_acc 0000000180070cd0     c152_modello_2017b_levaRetro_acc.obj
 0002:00005ce8       $chain$3$c152_chartstep_c152_modello_2017b_levaRetro_acc 0000000180070ce8     c152_modello_2017b_levaRetro_acc.obj
 0002:00005d00       $chain$4$c152_chartstep_c152_modello_2017b_levaRetro_acc 0000000180070d00     c152_modello_2017b_levaRetro_acc.obj
 0002:00005d10       $chain$5$c152_chartstep_c152_modello_2017b_levaRetro_acc 0000000180070d10     c152_modello_2017b_levaRetro_acc.obj
 0002:00005d20       $unwind$c152_asse_x        0000000180070d20     c152_modello_2017b_levaRetro_acc.obj
 0002:00005d34       $chain$1$c152_asse_x       0000000180070d34     c152_modello_2017b_levaRetro_acc.obj
 0002:00005d4c       $chain$2$c152_asse_x       0000000180070d4c     c152_modello_2017b_levaRetro_acc.obj
 0002:00005d60       $chain$3$c152_asse_x       0000000180070d60     c152_modello_2017b_levaRetro_acc.obj
 0002:00005d70       $chain$4$c152_asse_x       0000000180070d70     c152_modello_2017b_levaRetro_acc.obj
 0002:00005d80       $unwind$c152_exit_internal_asse_x 0000000180070d80     c152_modello_2017b_levaRetro_acc.obj
 0002:00005d8c       $unwind$c152_muro_selezione_x 0000000180070d8c     c152_modello_2017b_levaRetro_acc.obj
 0002:00005d98       $chain$0$c152_muro_selezione_x 0000000180070d98     c152_modello_2017b_levaRetro_acc.obj
 0002:00005dac       $chain$1$c152_muro_selezione_x 0000000180070dac     c152_modello_2017b_levaRetro_acc.obj
 0002:00005dbc       $unwind$c152_rigidezza_finale 0000000180070dbc     c152_modello_2017b_levaRetro_acc.obj
 0002:00005dd8       $chain$1$c152_rigidezza_finale 0000000180070dd8     c152_modello_2017b_levaRetro_acc.obj
 0002:00005dec       $unwind$c152_sf_marshallOut 0000000180070dec     c152_modello_2017b_levaRetro_acc.obj
 0002:00005df4       $unwind$c152_emlrt_marshallIn 0000000180070df4     c152_modello_2017b_levaRetro_acc.obj
 0002:00005e00       $unwind$c152_b_emlrt_marshallIn 0000000180070e00     c152_modello_2017b_levaRetro_acc.obj
 0002:00005e0c       $unwind$c152_sf_marshallIn 0000000180070e0c     c152_modello_2017b_levaRetro_acc.obj
 0002:00005e1c       $unwind$c152_gearshift_grid_r 0000000180070e1c     c152_modello_2017b_levaRetro_acc.obj
 0002:00005e34       $unwind$c152_d_emlrt_marshallIn 0000000180070e34     c152_modello_2017b_levaRetro_acc.obj
 0002:00005e3c       $unwind$c152_e_emlrt_marshallIn 0000000180070e3c     c152_modello_2017b_levaRetro_acc.obj
 0002:00005e44       $unwind$c152_d_sf_marshallOut 0000000180070e44     c152_modello_2017b_levaRetro_acc.obj
 0002:00005e4c       $unwind$c152_f_emlrt_marshallIn 0000000180070e4c     c152_modello_2017b_levaRetro_acc.obj
 0002:00005e58       $unwind$c152_g_emlrt_marshallIn 0000000180070e58     c152_modello_2017b_levaRetro_acc.obj
 0002:00005e64       $unwind$c152_d_sf_marshallIn 0000000180070e64     c152_modello_2017b_levaRetro_acc.obj
 0002:00005e74       $unwind$c152_e_sf_marshallOut 0000000180070e74     c152_modello_2017b_levaRetro_acc.obj
 0002:00005e84       $unwind$c152_h_emlrt_marshallIn 0000000180070e84     c152_modello_2017b_levaRetro_acc.obj
 0002:00005e9c       $unwind$c152_e_sf_marshallIn 0000000180070e9c     c152_modello_2017b_levaRetro_acc.obj
 0002:00005eb4       $unwind$c152_i_emlrt_marshallIn 0000000180070eb4     c152_modello_2017b_levaRetro_acc.obj
 0002:00005ebc       $unwind$c152_j_emlrt_marshallIn 0000000180070ebc     c152_modello_2017b_levaRetro_acc.obj
 0002:00005ec4       $unwind$init_simulink_io_address 0000000180070ec4     c152_modello_2017b_levaRetro_acc.obj
 0002:00005ecc       $unwind$sf_c152_modello_2017b_levaRetro_acc_get_post_codegen_info 0000000180070ecc     c152_modello_2017b_levaRetro_acc.obj
 0002:00005ee0       $unwind$sf_c152_modello_2017b_levaRetro_acc_get_autoinheritance_info 0000000180070ee0     c152_modello_2017b_levaRetro_acc.obj
 0002:00005f10       $unwind$sf_c152_modello_2017b_levaRetro_acc_jit_fallback_info 0000000180070f10     c152_modello_2017b_levaRetro_acc.obj
 0002:00005f30       $unwind$sf_get_sim_state_info_c152_modello_2017b_levaRetro_acc 0000000180070f30     c152_modello_2017b_levaRetro_acc.obj
 0002:00005f40       $unwind$sf_check_dwork_consistency 0000000180070f40     c152_modello_2017b_levaRetro_acc.obj
 0002:00005f48       $chain$1$sf_check_dwork_consistency 0000000180070f48     c152_modello_2017b_levaRetro_acc.obj
 0002:00005f60       $chain$2$sf_check_dwork_consistency 0000000180070f60     c152_modello_2017b_levaRetro_acc.obj
 0002:00005f70       $unwind$sf_opaque_initialize_c152_modello_2017b_levaRetro_acc 0000000180070f70     c152_modello_2017b_levaRetro_acc.obj
 0002:00005f78       $unwind$sf_opaque_enable_c152_modello_2017b_levaRetro_acc 0000000180070f78     c152_modello_2017b_levaRetro_acc.obj
 0002:00005f80       $unwind$sf_opaque_disable_c152_modello_2017b_levaRetro_acc 0000000180070f80     c152_modello_2017b_levaRetro_acc.obj
 0002:00005f88       $unwind$sf_opaque_get_sim_state_c152_modello_2017b_levaRetro_acc 0000000180070f88     c152_modello_2017b_levaRetro_acc.obj
 0002:00005f90       $unwind$sf_opaque_set_sim_state_c152_modello_2017b_levaRetro_acc 0000000180070f90     c152_modello_2017b_levaRetro_acc.obj
 0002:00005f98       $unwind$sf_opaque_terminate_c152_modello_2017b_levaRetro_acc 0000000180070f98     c152_modello_2017b_levaRetro_acc.obj
 0002:00005fa0       $chain$0$sf_opaque_terminate_c152_modello_2017b_levaRetro_acc 0000000180070fa0     c152_modello_2017b_levaRetro_acc.obj
 0002:00005fb4       $chain$1$sf_opaque_terminate_c152_modello_2017b_levaRetro_acc 0000000180070fb4     c152_modello_2017b_levaRetro_acc.obj
 0002:00005fc4       $unwind$mdlProcessParameters_c152_modello_2017b_levaRetro_acc 0000000180070fc4     c152_modello_2017b_levaRetro_acc.obj
 0002:00005fcc       $chain$0$mdlProcessParameters_c152_modello_2017b_levaRetro_acc 0000000180070fcc     c152_modello_2017b_levaRetro_acc.obj
 0002:00005fe0       $chain$1$mdlProcessParameters_c152_modello_2017b_levaRetro_acc 0000000180070fe0     c152_modello_2017b_levaRetro_acc.obj
 0002:00005ff4       $chain$2$mdlProcessParameters_c152_modello_2017b_levaRetro_acc 0000000180070ff4     c152_modello_2017b_levaRetro_acc.obj
 0002:00006004       $chain$3$mdlProcessParameters_c152_modello_2017b_levaRetro_acc 0000000180071004     c152_modello_2017b_levaRetro_acc.obj
 0002:00006014       $unwind$sf_c152_modello_2017b_levaRetro_acc_get_testpoint_info 0000000180071014     c152_modello_2017b_levaRetro_acc.obj
 0002:0000601c       $unwind$sf_set_sfun_dwork_info 000000018007101c     c152_modello_2017b_levaRetro_acc.obj
 0002:00006024       $unwind$mdlSetWorkWidths_c152_modello_2017b_levaRetro_acc 0000000180071024     c152_modello_2017b_levaRetro_acc.obj
 0002:00006030       $chain$0$mdlSetWorkWidths_c152_modello_2017b_levaRetro_acc 0000000180071030     c152_modello_2017b_levaRetro_acc.obj
 0002:00006044       $chain$3$mdlSetWorkWidths_c152_modello_2017b_levaRetro_acc 0000000180071044     c152_modello_2017b_levaRetro_acc.obj
 0002:00006060       $chain$4$mdlSetWorkWidths_c152_modello_2017b_levaRetro_acc 0000000180071060     c152_modello_2017b_levaRetro_acc.obj
 0002:00006078       $chain$5$mdlSetWorkWidths_c152_modello_2017b_levaRetro_acc 0000000180071078     c152_modello_2017b_levaRetro_acc.obj
 0002:00006088       $chain$6$mdlSetWorkWidths_c152_modello_2017b_levaRetro_acc 0000000180071088     c152_modello_2017b_levaRetro_acc.obj
 0002:00006098       $unwind$mdlRTW_c152_modello_2017b_levaRetro_acc 0000000180071098     c152_modello_2017b_levaRetro_acc.obj
 0002:000060a0       $unwind$mdlStart_c152_modello_2017b_levaRetro_acc 00000001800710a0     c152_modello_2017b_levaRetro_acc.obj
 0002:000060ac       $unwind$sf_c451_modello_2017b_levaRetro_acc_get_eml_resolved_functions_info 00000001800710ac     c451_modello_2017b_levaRetro_acc.obj
 0002:000060b4       $unwind$sf_c451_modello_2017b_levaRetro_acc_get_check_sum 00000001800710b4     c451_modello_2017b_levaRetro_acc.obj
 0002:000060bc       $unwind$chart_debug_initialization 00000001800710bc     c451_modello_2017b_levaRetro_acc.obj
 0002:000060c8       $chain$5$chart_debug_initialization 00000001800710c8     c451_modello_2017b_levaRetro_acc.obj
 0002:000060f0       $chain$6$chart_debug_initialization 00000001800710f0     c451_modello_2017b_levaRetro_acc.obj
 0002:00006100       $unwind$chart_debug_initialize_data_addresses 0000000180071100     c451_modello_2017b_levaRetro_acc.obj
 0002:00006108       $chain$0$chart_debug_initialize_data_addresses 0000000180071108     c451_modello_2017b_levaRetro_acc.obj
 0002:0000611c       $chain$1$chart_debug_initialize_data_addresses 000000018007111c     c451_modello_2017b_levaRetro_acc.obj
 0002:0000612c       $unwind$initialize_c451_modello_2017b_levaRetro_acc 000000018007112c     c451_modello_2017b_levaRetro_acc.obj
 0002:00006134       $unwind$initialize_params_c451_modello_2017b_levaRetro_acc 0000000180071134     c451_modello_2017b_levaRetro_acc.obj
 0002:00006140       $unwind$enable_c451_modello_2017b_levaRetro_acc 0000000180071140     c451_modello_2017b_levaRetro_acc.obj
 0002:00006148       $unwind$disable_c451_modello_2017b_levaRetro_acc 0000000180071148     c451_modello_2017b_levaRetro_acc.obj
 0002:00006150       $unwind$c451_update_debugger_state_c451_modello_2017b_levaRetro_acc 0000000180071150     c451_modello_2017b_levaRetro_acc.obj
 0002:00006160       $unwind$get_sim_state_c451_modello_2017b_levaRetro_acc 0000000180071160     c451_modello_2017b_levaRetro_acc.obj
 0002:0000616c       $unwind$set_sim_state_c451_modello_2017b_levaRetro_acc 000000018007116c     c451_modello_2017b_levaRetro_acc.obj
 0002:00006174       $unwind$sf_gateway_c451_modello_2017b_levaRetro_acc 0000000180071174     c451_modello_2017b_levaRetro_acc.obj
 0002:00006180       $chain$0$sf_gateway_c451_modello_2017b_levaRetro_acc 0000000180071180     c451_modello_2017b_levaRetro_acc.obj
 0002:00006194       $chain$1$sf_gateway_c451_modello_2017b_levaRetro_acc 0000000180071194     c451_modello_2017b_levaRetro_acc.obj
 0002:000061a4       $unwind$c451_state_machine 00000001800711a4     c451_modello_2017b_levaRetro_acc.obj
 0002:000061b0       $chain$0$c451_state_machine 00000001800711b0     c451_modello_2017b_levaRetro_acc.obj
 0002:000061c4       $chain$1$c451_state_machine 00000001800711c4     c451_modello_2017b_levaRetro_acc.obj
 0002:000061d4       $unwind$c451_exit_internal_state_machine 00000001800711d4     c451_modello_2017b_levaRetro_acc.obj
 0002:000061e0       $unwind$c451_TRANSITION_PT_RL_BR2_PT_RL_BR 00000001800711e0     c451_modello_2017b_levaRetro_acc.obj
 0002:000061ec       $unwind$c451_TRANSITION_PT_BL_RR_PT_BL_RR2 00000001800711ec     c451_modello_2017b_levaRetro_acc.obj
 0002:000061f8       $unwind$c451_THRESHOLD_BL  00000001800711f8     c451_modello_2017b_levaRetro_acc.obj
 0002:00006204       $unwind$c451_THRESHOLD_BR  0000000180071204     c451_modello_2017b_levaRetro_acc.obj
 0002:00006210       $unwind$c451_b_emlrt_marshallIn 0000000180071210     c451_modello_2017b_levaRetro_acc.obj
 0002:00006218       $unwind$c451_c_emlrt_marshallIn 0000000180071218     c451_modello_2017b_levaRetro_acc.obj
 0002:00006220       $unwind$c451_c_sf_marshallOut 0000000180071220     c451_modello_2017b_levaRetro_acc.obj
 0002:00006228       $unwind$c451_d_emlrt_marshallIn 0000000180071228     c451_modello_2017b_levaRetro_acc.obj
 0002:00006234       $unwind$c451_e_emlrt_marshallIn 0000000180071234     c451_modello_2017b_levaRetro_acc.obj
 0002:00006240       $unwind$c451_c_sf_marshallIn 0000000180071240     c451_modello_2017b_levaRetro_acc.obj
 0002:00006250       $unwind$c451_d_sf_marshallOut 0000000180071250     c451_modello_2017b_levaRetro_acc.obj
 0002:00006258       $unwind$c451_f_emlrt_marshallIn 0000000180071258     c451_modello_2017b_levaRetro_acc.obj
 0002:00006264       $unwind$c451_g_emlrt_marshallIn 0000000180071264     c451_modello_2017b_levaRetro_acc.obj
 0002:00006270       $unwind$c451_d_sf_marshallIn 0000000180071270     c451_modello_2017b_levaRetro_acc.obj
 0002:00006280       $unwind$c451_h_emlrt_marshallIn 0000000180071280     c451_modello_2017b_levaRetro_acc.obj
 0002:00006288       $unwind$c451_i_emlrt_marshallIn 0000000180071288     c451_modello_2017b_levaRetro_acc.obj
 0002:00006290       $unwind$init_simulink_io_address 0000000180071290     c451_modello_2017b_levaRetro_acc.obj
 0002:00006298       $unwind$sf_c451_modello_2017b_levaRetro_acc_get_post_codegen_info 0000000180071298     c451_modello_2017b_levaRetro_acc.obj
 0002:000062ac       $unwind$sf_c451_modello_2017b_levaRetro_acc_get_autoinheritance_info 00000001800712ac     c451_modello_2017b_levaRetro_acc.obj
 0002:000062d8       $unwind$sf_c451_modello_2017b_levaRetro_acc_jit_fallback_info 00000001800712d8     c451_modello_2017b_levaRetro_acc.obj
 0002:000062f8       $unwind$sf_get_sim_state_info_c451_modello_2017b_levaRetro_acc 00000001800712f8     c451_modello_2017b_levaRetro_acc.obj
 0002:00006308       $unwind$sf_check_dwork_consistency 0000000180071308     c451_modello_2017b_levaRetro_acc.obj
 0002:00006310       $chain$1$sf_check_dwork_consistency 0000000180071310     c451_modello_2017b_levaRetro_acc.obj
 0002:00006328       $chain$2$sf_check_dwork_consistency 0000000180071328     c451_modello_2017b_levaRetro_acc.obj
 0002:00006338       $unwind$sf_opaque_initialize_c451_modello_2017b_levaRetro_acc 0000000180071338     c451_modello_2017b_levaRetro_acc.obj
 0002:00006340       $unwind$sf_opaque_enable_c451_modello_2017b_levaRetro_acc 0000000180071340     c451_modello_2017b_levaRetro_acc.obj
 0002:00006348       $unwind$sf_opaque_disable_c451_modello_2017b_levaRetro_acc 0000000180071348     c451_modello_2017b_levaRetro_acc.obj
 0002:00006350       $unwind$sf_opaque_get_sim_state_c451_modello_2017b_levaRetro_acc 0000000180071350     c451_modello_2017b_levaRetro_acc.obj
 0002:00006358       $unwind$sf_opaque_set_sim_state_c451_modello_2017b_levaRetro_acc 0000000180071358     c451_modello_2017b_levaRetro_acc.obj
 0002:00006360       $unwind$sf_opaque_terminate_c451_modello_2017b_levaRetro_acc 0000000180071360     c451_modello_2017b_levaRetro_acc.obj
 0002:00006368       $chain$0$sf_opaque_terminate_c451_modello_2017b_levaRetro_acc 0000000180071368     c451_modello_2017b_levaRetro_acc.obj
 0002:0000637c       $chain$1$sf_opaque_terminate_c451_modello_2017b_levaRetro_acc 000000018007137c     c451_modello_2017b_levaRetro_acc.obj
 0002:0000638c       $unwind$mdlProcessParameters_c451_modello_2017b_levaRetro_acc 000000018007138c     c451_modello_2017b_levaRetro_acc.obj
 0002:00006398       $chain$0$mdlProcessParameters_c451_modello_2017b_levaRetro_acc 0000000180071398     c451_modello_2017b_levaRetro_acc.obj
 0002:000063ac       $chain$1$mdlProcessParameters_c451_modello_2017b_levaRetro_acc 00000001800713ac     c451_modello_2017b_levaRetro_acc.obj
 0002:000063c0       $chain$2$mdlProcessParameters_c451_modello_2017b_levaRetro_acc 00000001800713c0     c451_modello_2017b_levaRetro_acc.obj
 0002:000063d0       $chain$3$mdlProcessParameters_c451_modello_2017b_levaRetro_acc 00000001800713d0     c451_modello_2017b_levaRetro_acc.obj
 0002:000063e0       $unwind$sf_c451_modello_2017b_levaRetro_acc_get_testpoint_info 00000001800713e0     c451_modello_2017b_levaRetro_acc.obj
 0002:000063e8       $unwind$sf_set_sfun_dwork_info 00000001800713e8     c451_modello_2017b_levaRetro_acc.obj
 0002:000063f0       $unwind$mdlSetWorkWidths_c451_modello_2017b_levaRetro_acc 00000001800713f0     c451_modello_2017b_levaRetro_acc.obj
 0002:000063fc       $chain$0$mdlSetWorkWidths_c451_modello_2017b_levaRetro_acc 00000001800713fc     c451_modello_2017b_levaRetro_acc.obj
 0002:00006410       $chain$3$mdlSetWorkWidths_c451_modello_2017b_levaRetro_acc 0000000180071410     c451_modello_2017b_levaRetro_acc.obj
 0002:0000642c       $chain$4$mdlSetWorkWidths_c451_modello_2017b_levaRetro_acc 000000018007142c     c451_modello_2017b_levaRetro_acc.obj
 0002:00006444       $chain$5$mdlSetWorkWidths_c451_modello_2017b_levaRetro_acc 0000000180071444     c451_modello_2017b_levaRetro_acc.obj
 0002:00006454       $chain$6$mdlSetWorkWidths_c451_modello_2017b_levaRetro_acc 0000000180071454     c451_modello_2017b_levaRetro_acc.obj
 0002:00006464       $unwind$mdlRTW_c451_modello_2017b_levaRetro_acc 0000000180071464     c451_modello_2017b_levaRetro_acc.obj
 0002:0000646c       $unwind$mdlStart_c451_modello_2017b_levaRetro_acc 000000018007146c     c451_modello_2017b_levaRetro_acc.obj
 0002:00006478       $unwind$sf_c463_modello_2017b_levaRetro_acc_get_eml_resolved_functions_info 0000000180071478     c463_modello_2017b_levaRetro_acc.obj
 0002:00006480       $unwind$sf_c463_modello_2017b_levaRetro_acc_get_check_sum 0000000180071480     c463_modello_2017b_levaRetro_acc.obj
 0002:00006488       $unwind$chart_debug_initialization 0000000180071488     c463_modello_2017b_levaRetro_acc.obj
 0002:00006494       $chain$5$chart_debug_initialization 0000000180071494     c463_modello_2017b_levaRetro_acc.obj
 0002:000064bc       $chain$6$chart_debug_initialization 00000001800714bc     c463_modello_2017b_levaRetro_acc.obj
 0002:000064cc       $unwind$chart_debug_initialize_data_addresses 00000001800714cc     c463_modello_2017b_levaRetro_acc.obj
 0002:000064d4       $chain$0$chart_debug_initialize_data_addresses 00000001800714d4     c463_modello_2017b_levaRetro_acc.obj
 0002:000064e8       $chain$1$chart_debug_initialize_data_addresses 00000001800714e8     c463_modello_2017b_levaRetro_acc.obj
 0002:000064f8       $unwind$initialize_c463_modello_2017b_levaRetro_acc 00000001800714f8     c463_modello_2017b_levaRetro_acc.obj
 0002:00006500       $unwind$initialize_params_c463_modello_2017b_levaRetro_acc 0000000180071500     c463_modello_2017b_levaRetro_acc.obj
 0002:0000650c       $unwind$enable_c463_modello_2017b_levaRetro_acc 000000018007150c     c463_modello_2017b_levaRetro_acc.obj
 0002:00006514       $unwind$disable_c463_modello_2017b_levaRetro_acc 0000000180071514     c463_modello_2017b_levaRetro_acc.obj
 0002:0000651c       $unwind$c463_update_debugger_state_c463_modello_2017b_levaRetro_acc 000000018007151c     c463_modello_2017b_levaRetro_acc.obj
 0002:0000652c       $unwind$get_sim_state_c463_modello_2017b_levaRetro_acc 000000018007152c     c463_modello_2017b_levaRetro_acc.obj
 0002:00006538       $unwind$set_sim_state_c463_modello_2017b_levaRetro_acc 0000000180071538     c463_modello_2017b_levaRetro_acc.obj
 0002:00006540       $unwind$sf_gateway_c463_modello_2017b_levaRetro_acc 0000000180071540     c463_modello_2017b_levaRetro_acc.obj
 0002:0000654c       $chain$0$sf_gateway_c463_modello_2017b_levaRetro_acc 000000018007154c     c463_modello_2017b_levaRetro_acc.obj
 0002:00006560       $chain$1$sf_gateway_c463_modello_2017b_levaRetro_acc 0000000180071560     c463_modello_2017b_levaRetro_acc.obj
 0002:00006570       $unwind$c463_state_machine 0000000180071570     c463_modello_2017b_levaRetro_acc.obj
 0002:0000657c       $chain$0$c463_state_machine 000000018007157c     c463_modello_2017b_levaRetro_acc.obj
 0002:00006590       $chain$1$c463_state_machine 0000000180071590     c463_modello_2017b_levaRetro_acc.obj
 0002:000065a0       $unwind$c463_exit_internal_state_machine 00000001800715a0     c463_modello_2017b_levaRetro_acc.obj
 0002:000065ac       $unwind$c463_TRANSITION_PT_RL_BR2_PT_RL_BR 00000001800715ac     c463_modello_2017b_levaRetro_acc.obj
 0002:000065b8       $unwind$c463_TRANSITION_PT_BL_RR_PT_BL_RR2 00000001800715b8     c463_modello_2017b_levaRetro_acc.obj
 0002:000065c4       $unwind$c463_THRESHOLD_BL  00000001800715c4     c463_modello_2017b_levaRetro_acc.obj
 0002:000065d0       $unwind$c463_THRESHOLD_BR  00000001800715d0     c463_modello_2017b_levaRetro_acc.obj
 0002:000065dc       $unwind$c463_b_emlrt_marshallIn 00000001800715dc     c463_modello_2017b_levaRetro_acc.obj
 0002:000065e4       $unwind$c463_c_emlrt_marshallIn 00000001800715e4     c463_modello_2017b_levaRetro_acc.obj
 0002:000065ec       $unwind$c463_c_sf_marshallOut 00000001800715ec     c463_modello_2017b_levaRetro_acc.obj
 0002:000065f4       $unwind$c463_d_emlrt_marshallIn 00000001800715f4     c463_modello_2017b_levaRetro_acc.obj
 0002:00006600       $unwind$c463_e_emlrt_marshallIn 0000000180071600     c463_modello_2017b_levaRetro_acc.obj
 0002:0000660c       $unwind$c463_c_sf_marshallIn 000000018007160c     c463_modello_2017b_levaRetro_acc.obj
 0002:0000661c       $unwind$c463_d_sf_marshallOut 000000018007161c     c463_modello_2017b_levaRetro_acc.obj
 0002:00006624       $unwind$c463_f_emlrt_marshallIn 0000000180071624     c463_modello_2017b_levaRetro_acc.obj
 0002:00006630       $unwind$c463_g_emlrt_marshallIn 0000000180071630     c463_modello_2017b_levaRetro_acc.obj
 0002:0000663c       $unwind$c463_d_sf_marshallIn 000000018007163c     c463_modello_2017b_levaRetro_acc.obj
 0002:0000664c       $unwind$c463_h_emlrt_marshallIn 000000018007164c     c463_modello_2017b_levaRetro_acc.obj
 0002:00006654       $unwind$c463_i_emlrt_marshallIn 0000000180071654     c463_modello_2017b_levaRetro_acc.obj
 0002:0000665c       $unwind$init_simulink_io_address 000000018007165c     c463_modello_2017b_levaRetro_acc.obj
 0002:00006664       $unwind$sf_c463_modello_2017b_levaRetro_acc_get_post_codegen_info 0000000180071664     c463_modello_2017b_levaRetro_acc.obj
 0002:00006678       $unwind$sf_c463_modello_2017b_levaRetro_acc_get_autoinheritance_info 0000000180071678     c463_modello_2017b_levaRetro_acc.obj
 0002:000066a4       $unwind$sf_c463_modello_2017b_levaRetro_acc_jit_fallback_info 00000001800716a4     c463_modello_2017b_levaRetro_acc.obj
 0002:000066c4       $unwind$sf_get_sim_state_info_c463_modello_2017b_levaRetro_acc 00000001800716c4     c463_modello_2017b_levaRetro_acc.obj
 0002:000066d4       $unwind$sf_check_dwork_consistency 00000001800716d4     c463_modello_2017b_levaRetro_acc.obj
 0002:000066dc       $chain$1$sf_check_dwork_consistency 00000001800716dc     c463_modello_2017b_levaRetro_acc.obj
 0002:000066f4       $chain$2$sf_check_dwork_consistency 00000001800716f4     c463_modello_2017b_levaRetro_acc.obj
 0002:00006704       $unwind$sf_opaque_initialize_c463_modello_2017b_levaRetro_acc 0000000180071704     c463_modello_2017b_levaRetro_acc.obj
 0002:0000670c       $unwind$sf_opaque_enable_c463_modello_2017b_levaRetro_acc 000000018007170c     c463_modello_2017b_levaRetro_acc.obj
 0002:00006714       $unwind$sf_opaque_disable_c463_modello_2017b_levaRetro_acc 0000000180071714     c463_modello_2017b_levaRetro_acc.obj
 0002:0000671c       $unwind$sf_opaque_get_sim_state_c463_modello_2017b_levaRetro_acc 000000018007171c     c463_modello_2017b_levaRetro_acc.obj
 0002:00006724       $unwind$sf_opaque_set_sim_state_c463_modello_2017b_levaRetro_acc 0000000180071724     c463_modello_2017b_levaRetro_acc.obj
 0002:0000672c       $unwind$sf_opaque_terminate_c463_modello_2017b_levaRetro_acc 000000018007172c     c463_modello_2017b_levaRetro_acc.obj
 0002:00006734       $chain$0$sf_opaque_terminate_c463_modello_2017b_levaRetro_acc 0000000180071734     c463_modello_2017b_levaRetro_acc.obj
 0002:00006748       $chain$1$sf_opaque_terminate_c463_modello_2017b_levaRetro_acc 0000000180071748     c463_modello_2017b_levaRetro_acc.obj
 0002:00006758       $unwind$mdlProcessParameters_c463_modello_2017b_levaRetro_acc 0000000180071758     c463_modello_2017b_levaRetro_acc.obj
 0002:00006764       $chain$0$mdlProcessParameters_c463_modello_2017b_levaRetro_acc 0000000180071764     c463_modello_2017b_levaRetro_acc.obj
 0002:00006778       $chain$1$mdlProcessParameters_c463_modello_2017b_levaRetro_acc 0000000180071778     c463_modello_2017b_levaRetro_acc.obj
 0002:0000678c       $chain$2$mdlProcessParameters_c463_modello_2017b_levaRetro_acc 000000018007178c     c463_modello_2017b_levaRetro_acc.obj
 0002:0000679c       $chain$3$mdlProcessParameters_c463_modello_2017b_levaRetro_acc 000000018007179c     c463_modello_2017b_levaRetro_acc.obj
 0002:000067ac       $unwind$sf_c463_modello_2017b_levaRetro_acc_get_testpoint_info 00000001800717ac     c463_modello_2017b_levaRetro_acc.obj
 0002:000067b4       $unwind$sf_set_sfun_dwork_info 00000001800717b4     c463_modello_2017b_levaRetro_acc.obj
 0002:000067bc       $unwind$mdlSetWorkWidths_c463_modello_2017b_levaRetro_acc 00000001800717bc     c463_modello_2017b_levaRetro_acc.obj
 0002:000067c8       $chain$0$mdlSetWorkWidths_c463_modello_2017b_levaRetro_acc 00000001800717c8     c463_modello_2017b_levaRetro_acc.obj
 0002:000067dc       $chain$3$mdlSetWorkWidths_c463_modello_2017b_levaRetro_acc 00000001800717dc     c463_modello_2017b_levaRetro_acc.obj
 0002:000067f8       $chain$4$mdlSetWorkWidths_c463_modello_2017b_levaRetro_acc 00000001800717f8     c463_modello_2017b_levaRetro_acc.obj
 0002:00006810       $chain$5$mdlSetWorkWidths_c463_modello_2017b_levaRetro_acc 0000000180071810     c463_modello_2017b_levaRetro_acc.obj
 0002:00006820       $chain$6$mdlSetWorkWidths_c463_modello_2017b_levaRetro_acc 0000000180071820     c463_modello_2017b_levaRetro_acc.obj
 0002:00006830       $unwind$mdlRTW_c463_modello_2017b_levaRetro_acc 0000000180071830     c463_modello_2017b_levaRetro_acc.obj
 0002:00006838       $unwind$mdlStart_c463_modello_2017b_levaRetro_acc 0000000180071838     c463_modello_2017b_levaRetro_acc.obj
 0002:00006844       $unwind$_vsnprintf_l       0000000180071844     modello_2017b_levaRetro_acc_sfun_registry.obj
 0002:00006858       $unwind$_vsprintf_l        0000000180071858     modello_2017b_levaRetro_acc_sfun_registry.obj
 0002:0000686c       $unwind$sprintf            000000018007186c     modello_2017b_levaRetro_acc_sfun_registry.obj
 0002:00006878       $unwind$mexFunction        0000000180071878     modello_2017b_levaRetro_acc_sfun_registry.obj
 0002:00006894       $unwind$_ssSetInputPortDirectFeedThroughFcn 0000000180071894     modello_2017b_levaRetro_acc_sfun_registry.obj
 0002:000068ac       $unwind$_ssGetInputPortSignalPtrsFcn 00000001800718ac     modello_2017b_levaRetro_acc_sfun_registry.obj
 0002:000068c8       $unwind$_ssGetInputPortSignalFcn 00000001800718c8     modello_2017b_levaRetro_acc_sfun_registry.obj
 0002:000068e4       $unwind$_ssSetInputPortReusableFcn 00000001800718e4     modello_2017b_levaRetro_acc_sfun_registry.obj
 0002:000068f4       $unwind$_ssSetOutputPortReusableFcn 00000001800718f4     modello_2017b_levaRetro_acc_sfun_registry.obj
 0002:00006908       $unwind$_ssRegisterSymbolicDimsExpr 0000000180071908     modello_2017b_levaRetro_acc_sfun_registry.obj
 0002:00006910       $unwind$_ssRegisterSymbolicDims 0000000180071910     modello_2017b_levaRetro_acc_sfun_registry.obj
 0002:00006918       $unwind$_ssRegisterSymbolicDimsString 0000000180071918     modello_2017b_levaRetro_acc_sfun_registry.obj
 0002:00006920       $unwind$_ssRegisterSymbolicDimsIntValue 0000000180071920     modello_2017b_levaRetro_acc_sfun_registry.obj
 0002:00006928       $unwind$_ssRegisterSymbolicDimsPlus 0000000180071928     modello_2017b_levaRetro_acc_sfun_registry.obj
 0002:00006930       $unwind$_ssRegisterSymbolicDimsMinus 0000000180071930     modello_2017b_levaRetro_acc_sfun_registry.obj
 0002:00006938       $unwind$_ssRegisterSymbolicDimsMultiply 0000000180071938     modello_2017b_levaRetro_acc_sfun_registry.obj
 0002:00006940       $unwind$_ssRegisterSymbolicDimsDivide 0000000180071940     modello_2017b_levaRetro_acc_sfun_registry.obj
 0002:00006948       $unwind$_ssGetNumSymbolicDims 0000000180071948     modello_2017b_levaRetro_acc_sfun_registry.obj
 0002:00006950       $unwind$_ssGetSymbolicDim  0000000180071950     modello_2017b_levaRetro_acc_sfun_registry.obj
 0002:00006958       $unwind$_ssSetInputPortSymbolicDimsId 0000000180071958     modello_2017b_levaRetro_acc_sfun_registry.obj
 0002:00006960       $unwind$_ssGetCompInputPortSymbolicDimsId 0000000180071960     modello_2017b_levaRetro_acc_sfun_registry.obj
 0002:00006968       $unwind$_ssSetCompInputPortSymbolicDimsId 0000000180071968     modello_2017b_levaRetro_acc_sfun_registry.obj
 0002:00006970       $unwind$_ssSetOutputPortSymbolicDimsId 0000000180071970     modello_2017b_levaRetro_acc_sfun_registry.obj
 0002:00006978       $unwind$_ssGetCompOutputPortSymbolicDimsId 0000000180071978     modello_2017b_levaRetro_acc_sfun_registry.obj
 0002:00006980       $unwind$_ssSetCompOutputPortSymbolicDimsId 0000000180071980     modello_2017b_levaRetro_acc_sfun_registry.obj
 0002:00006988       $unwind$_ssSetCompDWorkSymbolicDimsId 0000000180071988     modello_2017b_levaRetro_acc_sfun_registry.obj
 0002:00006990       $unwind$ssGetIsZeroCrossControlDisabled 0000000180071990     modello_2017b_levaRetro_acc_sfun_registry.obj
 0002:00006998       $unwind$ssSetIsInputPortUsedForContZcSignal 0000000180071998     modello_2017b_levaRetro_acc_sfun_registry.obj
 0002:000069a0       $unwind$ssSetZcSignalIsZcElementDisc 00000001800719a0     modello_2017b_levaRetro_acc_sfun_registry.obj
 0002:000069b0       $unwind$ssSetZcSignalWidth 00000001800719b0     modello_2017b_levaRetro_acc_sfun_registry.obj
 0002:000069b8       $unwind$ssSetZcSignalZcEventType 00000001800719b8     modello_2017b_levaRetro_acc_sfun_registry.obj
 0002:000069c0       $unwind$ssSetZcSignalType  00000001800719c0     modello_2017b_levaRetro_acc_sfun_registry.obj
 0002:000069c8       $unwind$ssSetZcSignalZcTol 00000001800719c8     modello_2017b_levaRetro_acc_sfun_registry.obj
 0002:000069d0       $unwind$ssSetZcSignalNeedsEventNotification 00000001800719d0     modello_2017b_levaRetro_acc_sfun_registry.obj
 0002:000069d8       $unwind$ssCreateAndAddZcSignalInfo 00000001800719d8     modello_2017b_levaRetro_acc_sfun_registry.obj
 0002:000069e0       $unwind$ssCloneAndAddZcSignalInfo 00000001800719e0     modello_2017b_levaRetro_acc_sfun_registry.obj
 0002:000069e8       $unwind$ssGetNumZcSignals  00000001800719e8     modello_2017b_levaRetro_acc_sfun_registry.obj
 0002:000069f0       $unwind$ssGetZcSignalVector 00000001800719f0     modello_2017b_levaRetro_acc_sfun_registry.obj
 0002:000069f8       $unwind$ssGetZcSignalName  00000001800719f8     modello_2017b_levaRetro_acc_sfun_registry.obj
 0002:00006a00       $unwind$ssGetZcSignalWidth 0000000180071a00     modello_2017b_levaRetro_acc_sfun_registry.obj
 0002:00006a08       $unwind$ssGetZcSignalZcEventType 0000000180071a08     modello_2017b_levaRetro_acc_sfun_registry.obj
 0002:00006a10       $unwind$ssGetZcSignalZcEvents 0000000180071a10     modello_2017b_levaRetro_acc_sfun_registry.obj
 0002:00006a18       $unwind$ssGetZcSignalType  0000000180071a18     modello_2017b_levaRetro_acc_sfun_registry.obj
 0002:00006a20       $unwind$ssGetZcSignalZcTol 0000000180071a20     modello_2017b_levaRetro_acc_sfun_registry.obj
 0002:00006a28       $unwind$ssGetZcSignalNeedsEventNotification 0000000180071a28     modello_2017b_levaRetro_acc_sfun_registry.obj
 0002:00006a30       $unwind$ssGetZcSignalIsZcElementDisc 0000000180071a30     modello_2017b_levaRetro_acc_sfun_registry.obj
 0002:00006a40       $unwind$ssGetIsInputPortElementContinuous 0000000180071a40     modello_2017b_levaRetro_acc_sfun_registry.obj
 0002:00006a50       $unwind$_ssSetIWorkValueFcn 0000000180071a50     modello_2017b_levaRetro_acc_sfun_registry.obj
 0002:00006a60       $chain$0$_ssSetIWorkValueFcn 0000000180071a60     modello_2017b_levaRetro_acc_sfun_registry.obj
 0002:00006a74       $chain$1$_ssSetIWorkValueFcn 0000000180071a74     modello_2017b_levaRetro_acc_sfun_registry.obj
 0002:00006a84       $unwind$_ssGetIWorkValueFcn 0000000180071a84     modello_2017b_levaRetro_acc_sfun_registry.obj
 0002:00006a94       $chain$0$_ssGetIWorkValueFcn 0000000180071a94     modello_2017b_levaRetro_acc_sfun_registry.obj
 0002:00006aa8       $chain$1$_ssGetIWorkValueFcn 0000000180071aa8     modello_2017b_levaRetro_acc_sfun_registry.obj
 0002:00006ab8       $unwind$_ssSetRWorkValueFcn 0000000180071ab8     modello_2017b_levaRetro_acc_sfun_registry.obj
 0002:00006ac8       $chain$0$_ssSetRWorkValueFcn 0000000180071ac8     modello_2017b_levaRetro_acc_sfun_registry.obj
 0002:00006adc       $chain$1$_ssSetRWorkValueFcn 0000000180071adc     modello_2017b_levaRetro_acc_sfun_registry.obj
 0002:00006aec       $unwind$_ssGetRWorkValueFcn 0000000180071aec     modello_2017b_levaRetro_acc_sfun_registry.obj
 0002:00006afc       $chain$0$_ssGetRWorkValueFcn 0000000180071afc     modello_2017b_levaRetro_acc_sfun_registry.obj
 0002:00006b10       $chain$1$_ssGetRWorkValueFcn 0000000180071b10     modello_2017b_levaRetro_acc_sfun_registry.obj
 0002:00006b20       $unwind$_ssSetPWorkValueFcn 0000000180071b20     modello_2017b_levaRetro_acc_sfun_registry.obj
 0002:00006b30       $chain$0$_ssSetPWorkValueFcn 0000000180071b30     modello_2017b_levaRetro_acc_sfun_registry.obj
 0002:00006b44       $chain$1$_ssSetPWorkValueFcn 0000000180071b44     modello_2017b_levaRetro_acc_sfun_registry.obj
 0002:00006b54       $unwind$_ssGetPWorkValueFcn 0000000180071b54     modello_2017b_levaRetro_acc_sfun_registry.obj
 0002:00006b64       $chain$0$_ssGetPWorkValueFcn 0000000180071b64     modello_2017b_levaRetro_acc_sfun_registry.obj
 0002:00006b78       $chain$1$_ssGetPWorkValueFcn 0000000180071b78     modello_2017b_levaRetro_acc_sfun_registry.obj
 0002:00006b88       $unwind$ssGetDTypeIdFromMxArray 0000000180071b88     modello_2017b_levaRetro_acc_sfun_registry.obj
 0002:00006b90       $unwind$ssWriteRTWNameValuePair 0000000180071b90     modello_2017b_levaRetro_acc_sfun_registry.obj
 0002:00006ba0       $chain$0$ssWriteRTWNameValuePair 0000000180071ba0     modello_2017b_levaRetro_acc_sfun_registry.obj
 0002:00006bb4       $chain$1$ssWriteRTWNameValuePair 0000000180071bb4     modello_2017b_levaRetro_acc_sfun_registry.obj
 0002:00006bc4       $unwind$ssWriteRTWParamSettings 0000000180071bc4     modello_2017b_levaRetro_acc_sfun_registry.obj
 0002:00006bd0       $chain$1$ssWriteRTWParamSettings 0000000180071bd0     modello_2017b_levaRetro_acc_sfun_registry.obj
 0002:00006be8       $chain$2$ssWriteRTWParamSettings 0000000180071be8     modello_2017b_levaRetro_acc_sfun_registry.obj
 0002:00006bf8       $chain$3$ssWriteRTWParamSettings 0000000180071bf8     modello_2017b_levaRetro_acc_sfun_registry.obj
 0002:00006c10       $unwind$ssWriteRTWParameters 0000000180071c10     modello_2017b_levaRetro_acc_sfun_registry.obj
 0002:00006c1c       $chain$1$ssWriteRTWParameters 0000000180071c1c     modello_2017b_levaRetro_acc_sfun_registry.obj
 0002:00006c34       $chain$2$ssWriteRTWParameters 0000000180071c34     modello_2017b_levaRetro_acc_sfun_registry.obj
 0002:00006c44       $chain$3$ssWriteRTWParameters 0000000180071c44     modello_2017b_levaRetro_acc_sfun_registry.obj
 0002:00006c5c       $chain$4$ssWriteRTWParameters 0000000180071c5c     modello_2017b_levaRetro_acc_sfun_registry.obj
 0002:00006c6c       $unwind$ssWriteRTWWorkVect 0000000180071c6c     modello_2017b_levaRetro_acc_sfun_registry.obj
 0002:00006c90       $chain$3$ssWriteRTWWorkVect 0000000180071c90     modello_2017b_levaRetro_acc_sfun_registry.obj
 0002:00006ca4       $chain$4$ssWriteRTWWorkVect 0000000180071ca4     modello_2017b_levaRetro_acc_sfun_registry.obj
 0002:00006cb4       $unwind$ssWriteRTWMxVectParam 0000000180071cb4     modello_2017b_levaRetro_acc_sfun_registry.obj
 0002:00006cbc       $unwind$ssWriteRTWMx2dMatParam 0000000180071cbc     modello_2017b_levaRetro_acc_sfun_registry.obj
 0002:00006cc4       $unwind$_ssSetInputPortMatrixDimensions 0000000180071cc4     modello_2017b_levaRetro_acc_sfun_registry.obj
 0002:00006ccc       $unwind$_ssSetOutputPortMatrixDimensions 0000000180071ccc     modello_2017b_levaRetro_acc_sfun_registry.obj
 0002:00006cd4       $unwind$_ssSetInputPortVectorDimension 0000000180071cd4     modello_2017b_levaRetro_acc_sfun_registry.obj
 0002:00006cdc       $unwind$_ssSetOutputPortVectorDimension 0000000180071cdc     modello_2017b_levaRetro_acc_sfun_registry.obj
 0002:00006ce4       $unwind$ssIsRunTimeParamTunable 0000000180071ce4     modello_2017b_levaRetro_acc_sfun_registry.obj
 0002:00006cec       $unwind$ssGetSFuncBlockHandle 0000000180071cec     modello_2017b_levaRetro_acc_sfun_registry.obj
 0002:00006cf4       $unwind$_ssGetCallSystemNumFcnCallDestinations 0000000180071cf4     modello_2017b_levaRetro_acc_sfun_registry.obj
 0002:00006cfc       $unwind$ssGetParameterTuningCompliance 0000000180071cfc     modello_2017b_levaRetro_acc_sfun_registry.obj
 0002:00006d04       $unwind$ssWarning          0000000180071d04     modello_2017b_levaRetro_acc_sfun_registry.obj
 0002:00006d1c       $unwind$_ssGetAbsTol       0000000180071d1c     modello_2017b_levaRetro_acc_sfun_registry.obj
 0002:00006d24       $unwind$sf_process_check_sum_call 0000000180071d24     modello_2017b_levaRetro_acc_sfun_registry.obj
 0002:00006d2c       $unwind$sf_process_testpoint_info_call 0000000180071d2c     modello_2017b_levaRetro_acc_sfun_registry.obj
 0002:00006d34       $unwind$sf_process_autoinheritance_call 0000000180071d34     modello_2017b_levaRetro_acc_sfun_registry.obj
 0002:00006d4c       $unwind$sf_process_get_third_party_uses_info_call 0000000180071d4c     modello_2017b_levaRetro_acc_sfun_registry.obj
 0002:00006d64       $unwind$sf_process_get_jit_fallback_info_call 0000000180071d64     modello_2017b_levaRetro_acc_sfun_registry.obj
 0002:00006d7c       $unwind$sf_process_get_updateBuildInfo_args_info_call 0000000180071d7c     modello_2017b_levaRetro_acc_sfun_registry.obj
 0002:00006d94       $unwind$sf_process_get_eml_resolved_functions_info_call 0000000180071d94     modello_2017b_levaRetro_acc_sfun_registry.obj
 0002:00006dac       $unwind$sf_mex_unlock_call 0000000180071dac     modello_2017b_levaRetro_acc_sfun_registry.obj
 0002:00006dbc       $unwind$sf_debug_api_wrapper 0000000180071dbc     modello_2017b_levaRetro_acc_sfun_registry.obj
 0002:00006dc4       $unwind$ProcessMexSfunctionCmdLineCall 0000000180071dc4     modello_2017b_levaRetro_acc_sfun_registry.obj
 0002:00006dd8       $unwind$sf_machine_global_method_dispatcher 0000000180071dd8     modello_2017b_levaRetro_acc_sfun_registry.obj
 0002:00006de8       $unwind$sf_machine_global_terminator 0000000180071de8     modello_2017b_levaRetro_acc_sfun_registry.obj
 0002:00006df0       $unwind$sf_machine_global_initializer 0000000180071df0     modello_2017b_levaRetro_acc_sfun_registry.obj
 0002:00006dfc       $unwind$mdlGetSimState     0000000180071dfc     modello_2017b_levaRetro_acc_sfun_registry.obj
 0002:00006e04       $unwind$mdlSetSimState     0000000180071e04     modello_2017b_levaRetro_acc_sfun_registry.obj
 0002:00006e10       $unwind$mdl_start_processing 0000000180071e10     modello_2017b_levaRetro_acc_sfun_registry.obj
 0002:00006e1c       $unwind$mdl_terminate_processing 0000000180071e1c     modello_2017b_levaRetro_acc_sfun_registry.obj
 0002:00006e2c       $unwind$mdl_outputs_continuous_legacy 0000000180071e2c     modello_2017b_levaRetro_acc_sfun_registry.obj
 0002:00006e34       $unwind$mdl_outputs_processing 0000000180071e34     modello_2017b_levaRetro_acc_sfun_registry.obj
 0002:00006e40       $unwind$mdl_zeroCrossings_processing 0000000180071e40     modello_2017b_levaRetro_acc_sfun_registry.obj
 0002:00006e48       $unwind$mdl_derivatives_processing 0000000180071e48     modello_2017b_levaRetro_acc_sfun_registry.obj
 0002:00006e50       $unwind$mdl_initialize_conditions_processing 0000000180071e50     modello_2017b_levaRetro_acc_sfun_registry.obj
 0002:00006e58       $unwind$mdl_ext_mode_exec_processing 0000000180071e58     modello_2017b_levaRetro_acc_sfun_registry.obj
 0002:00006e60       $unwind$mdlRTW             0000000180071e60     modello_2017b_levaRetro_acc_sfun_registry.obj
 0002:00006e6c       $unwind$mdl_enable_processing 0000000180071e6c     modello_2017b_levaRetro_acc_sfun_registry.obj
 0002:00006e74       $unwind$mdl_disable_processing 0000000180071e74     modello_2017b_levaRetro_acc_sfun_registry.obj
 0002:00006e7c       $unwind$mdl_update_processing 0000000180071e7c     modello_2017b_levaRetro_acc_sfun_registry.obj
 0002:00006e84       $unwind$ProcessMexSfunctionEveryCall 0000000180071e84     modello_2017b_levaRetro_acc_sfun_registry.obj
 0002:00006e8c       $unwind$_RegNumInputPortsCB 0000000180071e8c     modello_2017b_levaRetro_acc_sfun_registry.obj
 0002:00006e94       $unwind$_RegNumOutputPortsCB 0000000180071e94     modello_2017b_levaRetro_acc_sfun_registry.obj
 0002:00006e9c       $unwind$_CreateSimStruct   0000000180071e9c     modello_2017b_levaRetro_acc_sfun_registry.obj
 0002:00006eb8       $unwind$_ProcessMexSfunctionCmdLineCall 0000000180071eb8     modello_2017b_levaRetro_acc_sfun_registry.obj
 0002:00006ed8       $unwind$ReportIndexOutOfBoundsError 0000000180071ed8     modello_2017b_levaRetro_acc_sfun_registry.obj
 0002:00006ee8       $chain$0$ReportIndexOutOfBoundsError 0000000180071ee8     modello_2017b_levaRetro_acc_sfun_registry.obj
 0002:00006efc       $chain$1$ReportIndexOutOfBoundsError 0000000180071efc     modello_2017b_levaRetro_acc_sfun_registry.obj
 0002:00006f0c       $unwind$__GSHandlerCheckCommon 0000000180071f0c     MSVCRT:_gshandler_.obj
 0002:00006f14       $unwind$__GSHandlerCheck   0000000180071f14     MSVCRT:_gshandler_.obj
 0002:00006f20       $xdatasym                  0000000180071f20     MSVCRT:_amdsecgs_.obj
 0002:00006f24       $unwind$?dllmain_crt_process_attach@@YAHQEAUHINSTANCE__@@QEAX@Z 0000000180071f24     MSVCRT:dll_dllmain.obj
 0002:00006f50       $unwind$?fin$0@?0??dllmain_crt_process_attach@@YAHQEAUHINSTANCE__@@QEAX@Z@4HA 0000000180071f50     MSVCRT:dll_dllmain.obj
 0002:00006f58       $unwind$?dllmain_crt_process_detach@@YAH_N@Z 0000000180071f58     MSVCRT:dll_dllmain.obj
 0002:00006f80       $unwind$?fin$0@?0??dllmain_crt_process_detach@@YAH_N@Z@4HA 0000000180071f80     MSVCRT:dll_dllmain.obj
 0002:00006f88       $unwind$?dllmain_crt_dispatch@@YAHQEAUHINSTANCE__@@KQEAX@Z 0000000180071f88     MSVCRT:dll_dllmain.obj
 0002:00006f90       $unwind$?dllmain_raw@@YAHQEAUHINSTANCE__@@KQEAX@Z 0000000180071f90     MSVCRT:dll_dllmain.obj
 0002:00006fa4       $unwind$?dllmain_dispatch@@YAHQEAUHINSTANCE__@@KQEAX@Z 0000000180071fa4     MSVCRT:dll_dllmain.obj
 0002:00006fcc       $unwind$?filt$0@?0??dllmain_dispatch@@YAHQEAUHINSTANCE__@@KQEAX@Z@4HA 0000000180071fcc     MSVCRT:dll_dllmain.obj
 0002:00006fd4       $unwind$_DllMainCRTStartup 0000000180071fd4     MSVCRT:dll_dllmain.obj
 0002:00006fe4       $unwind$__report_securityfailure 0000000180071fe4     MSVCRT:gs_report.obj
 0002:00006fec       $unwind$__report_securityfailureEx 0000000180071fec     MSVCRT:gs_report.obj
 0002:00006ff4       $unwind$__report_rangecheckfailure 0000000180071ff4     MSVCRT:gs_report.obj
 0002:00006ffc       $unwind$__report_gsfailure 0000000180071ffc     MSVCRT:gs_report.obj
 0002:00007004       $unwind$capture_current_context 0000000180072004     MSVCRT:gs_report.obj
 0002:00007010       $unwind$capture_previous_context 0000000180072010     MSVCRT:gs_report.obj
 0002:0000701c       $unwind$__raise_securityfailure 000000018007201c     MSVCRT:gs_report.obj
 0002:00007024       $unwind$atexit             0000000180072024     MSVCRT:utility.obj
 0002:0000702c       $unwind$_onexit            000000018007202c     MSVCRT:utility.obj
 0002:00007034       $unwind$__scrt_is_nonwritable_in_current_image 0000000180072034     MSVCRT:utility.obj
 0002:00007054       $unwind$__scrt_is_nonwritable_in_current_image$filt$0 0000000180072054     MSVCRT:utility.obj
 0002:0000705c       $unwind$__scrt_acquire_startup_lock 000000018007205c     MSVCRT:utility.obj
 0002:00007064       $unwind$__scrt_release_startup_lock 0000000180072064     MSVCRT:utility.obj
 0002:0000706c       $unwind$__scrt_initialize_crt 000000018007206c     MSVCRT:utility.obj
 0002:00007074       $unwind$__scrt_uninitialize_crt 0000000180072074     MSVCRT:utility.obj
 0002:0000707c       $unwind$__scrt_initialize_onexit_tables 000000018007207c     MSVCRT:utility.obj
 0002:00007088       $unwind$__scrt_dllmain_exception_filter 0000000180072088     MSVCRT:utility.obj
 0002:0000709c       $unwind$__scrt_dllmain_before_initialize_c 000000018007209c     MSVCRT:utility.obj
 0002:000070a4       $unwind$__scrt_dllmain_after_initialize_c 00000001800720a4     MSVCRT:utility.obj
 0002:000070ac       $unwind$__scrt_dllmain_uninitialize_c 00000001800720ac     MSVCRT:utility.obj
 0002:000070b4       $unwind$__scrt_dllmain_uninitialize_critical 00000001800720b4     MSVCRT:utility.obj
 0002:000070bc       $unwind$__scrt_dllmain_crt_thread_attach 00000001800720bc     MSVCRT:utility.obj
 0002:000070c4       $unwind$__scrt_dllmain_crt_thread_detach 00000001800720c4     MSVCRT:utility.obj
 0002:000070cc       $unwind$?configure_argv@__scrt_narrow_argv_policy@@SAHXZ 00000001800720cc     MSVCRT:utility.obj
 0002:000070d4       $unwind$__security_init_cookie 00000001800720d4     MSVCRT:gs_support.obj
 0002:000070e0       $unwind$DllMain            00000001800720e0     MSVCRT:dll_dllmain_stub.obj
 0002:000070e8       $unwind$__scrt_initialize_default_local_stdio_options 00000001800720e8     MSVCRT:default_local_stdio_options.obj
 0002:000070f0       $unwind$__scrt_get_show_window_mode 00000001800720f0     MSVCRT:utility_desktop.obj
 0002:000070f8       $unwind$__scrt_is_managed_app 00000001800720f8     MSVCRT:utility_desktop.obj
 0002:00007100       $unwind$__scrt_fastfail    0000000180072100     MSVCRT:utility_desktop.obj
 0002:00007110       $unwind$__scrt_unhandled_exception_filter 0000000180072110     MSVCRT:utility_desktop.obj
 0002:00007118       $unwind$_RTC_Initialize    0000000180072118     MSVCRT:_initsect_.obj
 0002:00007128       $unwind$_RTC_Terminate     0000000180072128     MSVCRT:_initsect_.obj
 0002:00007138       $unwind$__isa_available_init 0000000180072138     MSVCRT:_cpu_disp_.obj
 0002:00007148       $xdatasym                  0000000180072148     MSVCRT:_guard_dispatch_.obj
 0002:00007150       .edata                     0000000180072150     modello_2017b_levaRetro_acc_sfun.exp
 0002:00007178       rgpv                       0000000180072178     modello_2017b_levaRetro_acc_sfun.exp
 0002:00007180       rgszName                   0000000180072180     modello_2017b_levaRetro_acc_sfun.exp
 0002:00007188       rgwOrd                     0000000180072188     modello_2017b_levaRetro_acc_sfun.exp
 0002:0000718c       szName                     000000018007218c     modello_2017b_levaRetro_acc_sfun.exp
 0002:000071b4       $N00001                    00000001800721b4     modello_2017b_levaRetro_acc_sfun.exp
 0002:000071c0       $N00002                    00000001800721c0     modello_2017b_levaRetro_acc_sfun.exp
 0002:000082b6       .idata$6                   00000001800732b6     sf_runtime:sf_runtime.dll
 0002:0000842e       .idata$6                   000000018007342e     libmx:libmx.dll
 0002:000084b0       .idata$6                   00000001800734b0     libmex:libmex.dll
 0002:000084d2       .idata$6                   00000001800734d2     libut:libut.dll
 0002:000084f0       .idata$6                   00000001800734f0     libmwmathutil:libmwmathutil.dll
 0002:0000868e       .idata$6                   000000018007368e     kernel32:KERNEL32.dll
 0002:000086e8       .idata$6                   00000001800736e8     vcruntime:VCRUNTIME140.dll
 0002:00008822       .idata$6                   0000000180073822     ucrt:api-ms-win-crt-string-l1-1-0.dll
 0002:00008844       .idata$6                   0000000180073844     ucrt:api-ms-win-crt-stdio-l1-1-0.dll
 0002:00008864       .idata$6                   0000000180073864     ucrt:api-ms-win-crt-heap-l1-1-0.dll
 0002:00008884       .idata$6                   0000000180073884     ucrt:api-ms-win-crt-runtime-l1-1-0.dll
 0003:00000000       ?checksum@?1??sf_get_sfun_dwork_checksum@@9@9 0000000180074000     c1_modello_2017b_levaRetro_acc.obj
 0003:00000010       c1_debug_family_names      0000000180074010     c1_modello_2017b_levaRetro_acc.obj
 0003:00000020       c1_b_debug_family_names    0000000180074020     c1_modello_2017b_levaRetro_acc.obj
 0003:00000030       c1_c_debug_family_names    0000000180074030     c1_modello_2017b_levaRetro_acc.obj
 0003:00000040       c1_d_debug_family_names    0000000180074040     c1_modello_2017b_levaRetro_acc.obj
 0003:00000050       c1_e_debug_family_names    0000000180074050     c1_modello_2017b_levaRetro_acc.obj
 0003:00000060       c1_f_debug_family_names    0000000180074060     c1_modello_2017b_levaRetro_acc.obj
 0003:00000070       c1_g_debug_family_names    0000000180074070     c1_modello_2017b_levaRetro_acc.obj
 0003:00000080       c1_h_debug_family_names    0000000180074080     c1_modello_2017b_levaRetro_acc.obj
 0003:00000090       c1_i_debug_family_names    0000000180074090     c1_modello_2017b_levaRetro_acc.obj
 0003:000000a8       c1_j_debug_family_names    00000001800740a8     c1_modello_2017b_levaRetro_acc.obj
 0003:000000b8       c1_k_debug_family_names    00000001800740b8     c1_modello_2017b_levaRetro_acc.obj
 0003:000000d0       c1_l_debug_family_names    00000001800740d0     c1_modello_2017b_levaRetro_acc.obj
 0003:000000e0       c1_m_debug_family_names    00000001800740e0     c1_modello_2017b_levaRetro_acc.obj
 0003:000000f8       c1_n_debug_family_names    00000001800740f8     c1_modello_2017b_levaRetro_acc.obj
 0003:00000108       c1_o_debug_family_names    0000000180074108     c1_modello_2017b_levaRetro_acc.obj
 0003:00000120       c1_p_debug_family_names    0000000180074120     c1_modello_2017b_levaRetro_acc.obj
 0003:00000130       c1_q_debug_family_names    0000000180074130     c1_modello_2017b_levaRetro_acc.obj
 0003:00000148       c1_r_debug_family_names    0000000180074148     c1_modello_2017b_levaRetro_acc.obj
 0003:00000158       c1_s_debug_family_names    0000000180074158     c1_modello_2017b_levaRetro_acc.obj
 0003:00000170       c1_t_debug_family_names    0000000180074170     c1_modello_2017b_levaRetro_acc.obj
 0003:00000180       c1_u_debug_family_names    0000000180074180     c1_modello_2017b_levaRetro_acc.obj
 0003:00000198       c1_v_debug_family_names    0000000180074198     c1_modello_2017b_levaRetro_acc.obj
 0003:000001a8       c1_w_debug_family_names    00000001800741a8     c1_modello_2017b_levaRetro_acc.obj
 0003:000001c0       c1_x_debug_family_names    00000001800741c0     c1_modello_2017b_levaRetro_acc.obj
 0003:000001d0       c1_y_debug_family_names    00000001800741d0     c1_modello_2017b_levaRetro_acc.obj
 0003:000001e8       c1_ab_debug_family_names   00000001800741e8     c1_modello_2017b_levaRetro_acc.obj
 0003:000001f8       c1_bb_debug_family_names   00000001800741f8     c1_modello_2017b_levaRetro_acc.obj
 0003:00000210       c1_cb_debug_family_names   0000000180074210     c1_modello_2017b_levaRetro_acc.obj
 0003:00000220       c1_db_debug_family_names   0000000180074220     c1_modello_2017b_levaRetro_acc.obj
 0003:00000238       c1_eb_debug_family_names   0000000180074238     c1_modello_2017b_levaRetro_acc.obj
 0003:00000250       c1_fb_debug_family_names   0000000180074250     c1_modello_2017b_levaRetro_acc.obj
 0003:00000268       c1_gb_debug_family_names   0000000180074268     c1_modello_2017b_levaRetro_acc.obj
 0003:00000280       c1_hb_debug_family_names   0000000180074280     c1_modello_2017b_levaRetro_acc.obj
 0003:00000298       c1_ib_debug_family_names   0000000180074298     c1_modello_2017b_levaRetro_acc.obj
 0003:000002a8       c1_jb_debug_family_names   00000001800742a8     c1_modello_2017b_levaRetro_acc.obj
 0003:000002c0       c1_kb_debug_family_names   00000001800742c0     c1_modello_2017b_levaRetro_acc.obj
 0003:000002d8       c1_lb_debug_family_names   00000001800742d8     c1_modello_2017b_levaRetro_acc.obj
 0003:000002f0       c1_mb_debug_family_names   00000001800742f0     c1_modello_2017b_levaRetro_acc.obj
 0003:00000308       c1_nb_debug_family_names   0000000180074308     c1_modello_2017b_levaRetro_acc.obj
 0003:00000320       c1_ob_debug_family_names   0000000180074320     c1_modello_2017b_levaRetro_acc.obj
 0003:00000338       c1_pb_debug_family_names   0000000180074338     c1_modello_2017b_levaRetro_acc.obj
 0003:00000350       c1_qb_debug_family_names   0000000180074350     c1_modello_2017b_levaRetro_acc.obj
 0003:00000368       c1_rb_debug_family_names   0000000180074368     c1_modello_2017b_levaRetro_acc.obj
 0003:00000380       c1_sb_debug_family_names   0000000180074380     c1_modello_2017b_levaRetro_acc.obj
 0003:00000398       c1_tb_debug_family_names   0000000180074398     c1_modello_2017b_levaRetro_acc.obj
 0003:000003b0       c1_ub_debug_family_names   00000001800743b0     c1_modello_2017b_levaRetro_acc.obj
 0003:000003c8       ?condStart@?BC@??chart_debug_initialization@@9@9 00000001800743c8     c1_modello_2017b_levaRetro_acc.obj
 0003:000003d8       ?condEnd@?BC@??chart_debug_initialization@@9@9 00000001800743d8     c1_modello_2017b_levaRetro_acc.obj
 0003:000003e8       ?pfixExpr@?BC@??chart_debug_initialization@@9@9 00000001800743e8     c1_modello_2017b_levaRetro_acc.obj
 0003:00000400       ?condStart@?BD@??chart_debug_initialization@@9@9 0000000180074400     c1_modello_2017b_levaRetro_acc.obj
 0003:00000410       ?condEnd@?BD@??chart_debug_initialization@@9@9 0000000180074410     c1_modello_2017b_levaRetro_acc.obj
 0003:00000420       ?pfixExpr@?BD@??chart_debug_initialization@@9@9 0000000180074420     c1_modello_2017b_levaRetro_acc.obj
 0003:00000448       ?condStart@?BE@??chart_debug_initialization@@9@9 0000000180074448     c1_modello_2017b_levaRetro_acc.obj
 0003:00000450       ?condEnd@?BE@??chart_debug_initialization@@9@9 0000000180074450     c1_modello_2017b_levaRetro_acc.obj
 0003:00000458       ?pfixExpr@?BE@??chart_debug_initialization@@9@9 0000000180074458     c1_modello_2017b_levaRetro_acc.obj
 0003:00000468       ?condStart@?BF@??chart_debug_initialization@@9@9 0000000180074468     c1_modello_2017b_levaRetro_acc.obj
 0003:00000470       ?condEnd@?BF@??chart_debug_initialization@@9@9 0000000180074470     c1_modello_2017b_levaRetro_acc.obj
 0003:00000478       ?pfixExpr@?BF@??chart_debug_initialization@@9@9 0000000180074478     c1_modello_2017b_levaRetro_acc.obj
 0003:00000488       ?condStart@?BG@??chart_debug_initialization@@9@9 0000000180074488     c1_modello_2017b_levaRetro_acc.obj
 0003:00000498       ?condEnd@?BG@??chart_debug_initialization@@9@9 0000000180074498     c1_modello_2017b_levaRetro_acc.obj
 0003:000004a8       ?pfixExpr@?BG@??chart_debug_initialization@@9@9 00000001800744a8     c1_modello_2017b_levaRetro_acc.obj
 0003:000004c0       c2_debug_family_names      00000001800744c0     c2_modello_2017b_levaRetro_acc.obj
 0003:000004d0       c2_b_debug_family_names    00000001800744d0     c2_modello_2017b_levaRetro_acc.obj
 0003:000004e0       c2_c_debug_family_names    00000001800744e0     c2_modello_2017b_levaRetro_acc.obj
 0003:000004f0       c2_d_debug_family_names    00000001800744f0     c2_modello_2017b_levaRetro_acc.obj
 0003:00000500       c2_e_debug_family_names    0000000180074500     c2_modello_2017b_levaRetro_acc.obj
 0003:00000518       c2_f_debug_family_names    0000000180074518     c2_modello_2017b_levaRetro_acc.obj
 0003:00000528       c2_g_debug_family_names    0000000180074528     c2_modello_2017b_levaRetro_acc.obj
 0003:00000540       c2_h_debug_family_names    0000000180074540     c2_modello_2017b_levaRetro_acc.obj
 0003:00000550       c2_i_debug_family_names    0000000180074550     c2_modello_2017b_levaRetro_acc.obj
 0003:00000568       c2_j_debug_family_names    0000000180074568     c2_modello_2017b_levaRetro_acc.obj
 0003:00000578       c2_k_debug_family_names    0000000180074578     c2_modello_2017b_levaRetro_acc.obj
 0003:00000590       c2_l_debug_family_names    0000000180074590     c2_modello_2017b_levaRetro_acc.obj
 0003:000005a0       c2_m_debug_family_names    00000001800745a0     c2_modello_2017b_levaRetro_acc.obj
 0003:000005b8       c2_n_debug_family_names    00000001800745b8     c2_modello_2017b_levaRetro_acc.obj
 0003:000005c8       c2_o_debug_family_names    00000001800745c8     c2_modello_2017b_levaRetro_acc.obj
 0003:000005e0       c2_p_debug_family_names    00000001800745e0     c2_modello_2017b_levaRetro_acc.obj
 0003:000005f0       c2_q_debug_family_names    00000001800745f0     c2_modello_2017b_levaRetro_acc.obj
 0003:00000600       c2_r_debug_family_names    0000000180074600     c2_modello_2017b_levaRetro_acc.obj
 0003:00000618       c2_s_debug_family_names    0000000180074618     c2_modello_2017b_levaRetro_acc.obj
 0003:00000630       c2_t_debug_family_names    0000000180074630     c2_modello_2017b_levaRetro_acc.obj
 0003:00000648       c2_u_debug_family_names    0000000180074648     c2_modello_2017b_levaRetro_acc.obj
 0003:00000660       c2_v_debug_family_names    0000000180074660     c2_modello_2017b_levaRetro_acc.obj
 0003:00000678       c2_w_debug_family_names    0000000180074678     c2_modello_2017b_levaRetro_acc.obj
 0003:00000690       c2_x_debug_family_names    0000000180074690     c2_modello_2017b_levaRetro_acc.obj
 0003:000006a8       c2_y_debug_family_names    00000001800746a8     c2_modello_2017b_levaRetro_acc.obj
 0003:000006c0       c2_ab_debug_family_names   00000001800746c0     c2_modello_2017b_levaRetro_acc.obj
 0003:000006d8       c2_bb_debug_family_names   00000001800746d8     c2_modello_2017b_levaRetro_acc.obj
 0003:000006f0       ?checksum@?1??sf_get_sfun_dwork_checksum@@9@9 00000001800746f0     c2_modello_2017b_levaRetro_acc.obj
 0003:00000700       ?checksum@?1??sf_get_sfun_dwork_checksum@@9@9 0000000180074700     c3_modello_2017b_levaRetro_acc.obj
 0003:00000710       c3_debug_family_names      0000000180074710     c3_modello_2017b_levaRetro_acc.obj
 0003:00000720       c3_b_debug_family_names    0000000180074720     c3_modello_2017b_levaRetro_acc.obj
 0003:00000730       c3_c_debug_family_names    0000000180074730     c3_modello_2017b_levaRetro_acc.obj
 0003:00000740       c3_d_debug_family_names    0000000180074740     c3_modello_2017b_levaRetro_acc.obj
 0003:00000750       c3_e_debug_family_names    0000000180074750     c3_modello_2017b_levaRetro_acc.obj
 0003:00000760       c3_f_debug_family_names    0000000180074760     c3_modello_2017b_levaRetro_acc.obj
 0003:00000770       c3_g_debug_family_names    0000000180074770     c3_modello_2017b_levaRetro_acc.obj
 0003:00000780       c3_h_debug_family_names    0000000180074780     c3_modello_2017b_levaRetro_acc.obj
 0003:00000790       c3_i_debug_family_names    0000000180074790     c3_modello_2017b_levaRetro_acc.obj
 0003:000007a8       c3_j_debug_family_names    00000001800747a8     c3_modello_2017b_levaRetro_acc.obj
 0003:000007b8       c3_k_debug_family_names    00000001800747b8     c3_modello_2017b_levaRetro_acc.obj
 0003:000007d0       c3_l_debug_family_names    00000001800747d0     c3_modello_2017b_levaRetro_acc.obj
 0003:000007e0       c3_m_debug_family_names    00000001800747e0     c3_modello_2017b_levaRetro_acc.obj
 0003:000007f8       c3_n_debug_family_names    00000001800747f8     c3_modello_2017b_levaRetro_acc.obj
 0003:00000808       c3_o_debug_family_names    0000000180074808     c3_modello_2017b_levaRetro_acc.obj
 0003:00000820       c3_p_debug_family_names    0000000180074820     c3_modello_2017b_levaRetro_acc.obj
 0003:00000830       c3_q_debug_family_names    0000000180074830     c3_modello_2017b_levaRetro_acc.obj
 0003:00000848       c3_r_debug_family_names    0000000180074848     c3_modello_2017b_levaRetro_acc.obj
 0003:00000858       c3_s_debug_family_names    0000000180074858     c3_modello_2017b_levaRetro_acc.obj
 0003:00000870       c3_t_debug_family_names    0000000180074870     c3_modello_2017b_levaRetro_acc.obj
 0003:00000880       c3_u_debug_family_names    0000000180074880     c3_modello_2017b_levaRetro_acc.obj
 0003:00000898       c3_v_debug_family_names    0000000180074898     c3_modello_2017b_levaRetro_acc.obj
 0003:000008a8       c3_w_debug_family_names    00000001800748a8     c3_modello_2017b_levaRetro_acc.obj
 0003:000008c0       c3_x_debug_family_names    00000001800748c0     c3_modello_2017b_levaRetro_acc.obj
 0003:000008d0       c3_y_debug_family_names    00000001800748d0     c3_modello_2017b_levaRetro_acc.obj
 0003:000008e8       c3_ab_debug_family_names   00000001800748e8     c3_modello_2017b_levaRetro_acc.obj
 0003:000008f8       c3_bb_debug_family_names   00000001800748f8     c3_modello_2017b_levaRetro_acc.obj
 0003:00000910       c3_cb_debug_family_names   0000000180074910     c3_modello_2017b_levaRetro_acc.obj
 0003:00000920       c3_db_debug_family_names   0000000180074920     c3_modello_2017b_levaRetro_acc.obj
 0003:00000938       c3_eb_debug_family_names   0000000180074938     c3_modello_2017b_levaRetro_acc.obj
 0003:00000950       c3_fb_debug_family_names   0000000180074950     c3_modello_2017b_levaRetro_acc.obj
 0003:00000968       c3_gb_debug_family_names   0000000180074968     c3_modello_2017b_levaRetro_acc.obj
 0003:00000980       c3_hb_debug_family_names   0000000180074980     c3_modello_2017b_levaRetro_acc.obj
 0003:00000998       c3_ib_debug_family_names   0000000180074998     c3_modello_2017b_levaRetro_acc.obj
 0003:000009a8       c3_jb_debug_family_names   00000001800749a8     c3_modello_2017b_levaRetro_acc.obj
 0003:000009c0       c3_kb_debug_family_names   00000001800749c0     c3_modello_2017b_levaRetro_acc.obj
 0003:000009d8       c3_lb_debug_family_names   00000001800749d8     c3_modello_2017b_levaRetro_acc.obj
 0003:000009f0       c3_mb_debug_family_names   00000001800749f0     c3_modello_2017b_levaRetro_acc.obj
 0003:00000a08       c3_nb_debug_family_names   0000000180074a08     c3_modello_2017b_levaRetro_acc.obj
 0003:00000a20       c3_ob_debug_family_names   0000000180074a20     c3_modello_2017b_levaRetro_acc.obj
 0003:00000a38       c3_pb_debug_family_names   0000000180074a38     c3_modello_2017b_levaRetro_acc.obj
 0003:00000a50       c3_qb_debug_family_names   0000000180074a50     c3_modello_2017b_levaRetro_acc.obj
 0003:00000a68       c3_rb_debug_family_names   0000000180074a68     c3_modello_2017b_levaRetro_acc.obj
 0003:00000a80       c3_sb_debug_family_names   0000000180074a80     c3_modello_2017b_levaRetro_acc.obj
 0003:00000a98       c3_tb_debug_family_names   0000000180074a98     c3_modello_2017b_levaRetro_acc.obj
 0003:00000ab0       c3_ub_debug_family_names   0000000180074ab0     c3_modello_2017b_levaRetro_acc.obj
 0003:00000ac8       ?condStart@?BC@??chart_debug_initialization@@9@9 0000000180074ac8     c3_modello_2017b_levaRetro_acc.obj
 0003:00000ad8       ?condEnd@?BC@??chart_debug_initialization@@9@9 0000000180074ad8     c3_modello_2017b_levaRetro_acc.obj
 0003:00000ae8       ?pfixExpr@?BC@??chart_debug_initialization@@9@9 0000000180074ae8     c3_modello_2017b_levaRetro_acc.obj
 0003:00000b00       ?condStart@?BD@??chart_debug_initialization@@9@9 0000000180074b00     c3_modello_2017b_levaRetro_acc.obj
 0003:00000b10       ?condEnd@?BD@??chart_debug_initialization@@9@9 0000000180074b10     c3_modello_2017b_levaRetro_acc.obj
 0003:00000b20       ?pfixExpr@?BD@??chart_debug_initialization@@9@9 0000000180074b20     c3_modello_2017b_levaRetro_acc.obj
 0003:00000b48       ?condStart@?BE@??chart_debug_initialization@@9@9 0000000180074b48     c3_modello_2017b_levaRetro_acc.obj
 0003:00000b50       ?condEnd@?BE@??chart_debug_initialization@@9@9 0000000180074b50     c3_modello_2017b_levaRetro_acc.obj
 0003:00000b58       ?pfixExpr@?BE@??chart_debug_initialization@@9@9 0000000180074b58     c3_modello_2017b_levaRetro_acc.obj
 0003:00000b68       ?condStart@?BF@??chart_debug_initialization@@9@9 0000000180074b68     c3_modello_2017b_levaRetro_acc.obj
 0003:00000b70       ?condEnd@?BF@??chart_debug_initialization@@9@9 0000000180074b70     c3_modello_2017b_levaRetro_acc.obj
 0003:00000b78       ?pfixExpr@?BF@??chart_debug_initialization@@9@9 0000000180074b78     c3_modello_2017b_levaRetro_acc.obj
 0003:00000b88       ?condStart@?BG@??chart_debug_initialization@@9@9 0000000180074b88     c3_modello_2017b_levaRetro_acc.obj
 0003:00000b98       ?condEnd@?BG@??chart_debug_initialization@@9@9 0000000180074b98     c3_modello_2017b_levaRetro_acc.obj
 0003:00000ba8       ?pfixExpr@?BG@??chart_debug_initialization@@9@9 0000000180074ba8     c3_modello_2017b_levaRetro_acc.obj
 0003:00000bc0       c27_debug_family_names     0000000180074bc0     c27_modello_2017b_levaRetro_acc.obj
 0003:00000bd0       c27_b_debug_family_names   0000000180074bd0     c27_modello_2017b_levaRetro_acc.obj
 0003:00000be0       c27_c_debug_family_names   0000000180074be0     c27_modello_2017b_levaRetro_acc.obj
 0003:00000bf0       c27_d_debug_family_names   0000000180074bf0     c27_modello_2017b_levaRetro_acc.obj
 0003:00000c00       c27_e_debug_family_names   0000000180074c00     c27_modello_2017b_levaRetro_acc.obj
 0003:00000c10       c27_f_debug_family_names   0000000180074c10     c27_modello_2017b_levaRetro_acc.obj
 0003:00000c20       c27_g_debug_family_names   0000000180074c20     c27_modello_2017b_levaRetro_acc.obj
 0003:00000c30       c27_h_debug_family_names   0000000180074c30     c27_modello_2017b_levaRetro_acc.obj
 0003:00000c40       c27_i_debug_family_names   0000000180074c40     c27_modello_2017b_levaRetro_acc.obj
 0003:00000c58       c27_j_debug_family_names   0000000180074c58     c27_modello_2017b_levaRetro_acc.obj
 0003:00000c70       c27_k_debug_family_names   0000000180074c70     c27_modello_2017b_levaRetro_acc.obj
 0003:00000c88       c27_l_debug_family_names   0000000180074c88     c27_modello_2017b_levaRetro_acc.obj
 0003:00000ca0       c27_m_debug_family_names   0000000180074ca0     c27_modello_2017b_levaRetro_acc.obj
 0003:00000cb8       c27_n_debug_family_names   0000000180074cb8     c27_modello_2017b_levaRetro_acc.obj
 0003:00000cd0       c27_o_debug_family_names   0000000180074cd0     c27_modello_2017b_levaRetro_acc.obj
 0003:00000ce8       c27_p_debug_family_names   0000000180074ce8     c27_modello_2017b_levaRetro_acc.obj
 0003:00000d00       ?condStart@?P@??chart_debug_initialization@@9@9 0000000180074d00     c27_modello_2017b_levaRetro_acc.obj
 0003:00000d08       ?condEnd@?P@??chart_debug_initialization@@9@9 0000000180074d08     c27_modello_2017b_levaRetro_acc.obj
 0003:00000d10       ?pfixExpr@?P@??chart_debug_initialization@@9@9 0000000180074d10     c27_modello_2017b_levaRetro_acc.obj
 0003:00000d20       ?condStart@?BA@??chart_debug_initialization@@9@9 0000000180074d20     c27_modello_2017b_levaRetro_acc.obj
 0003:00000d28       ?condEnd@?BA@??chart_debug_initialization@@9@9 0000000180074d28     c27_modello_2017b_levaRetro_acc.obj
 0003:00000d30       ?pfixExpr@?BA@??chart_debug_initialization@@9@9 0000000180074d30     c27_modello_2017b_levaRetro_acc.obj
 0003:00000d40       ?checksum@?1??sf_get_sfun_dwork_checksum@@9@9 0000000180074d40     c27_modello_2017b_levaRetro_acc.obj
 0003:00000d50       ?checksum@?1??sf_get_sfun_dwork_checksum@@9@9 0000000180074d50     c52_modello_2017b_levaRetro_acc.obj
 0003:00000d60       c52_debug_family_names     0000000180074d60     c52_modello_2017b_levaRetro_acc.obj
 0003:00000d88       ?sStartGuardMap@?BB@??chart_debug_initialization@@9@9 0000000180074d88     c52_modello_2017b_levaRetro_acc.obj
 0003:00000d8c       ?sEndGuardMap@?BB@??chart_debug_initialization@@9@9 0000000180074d8c     c52_modello_2017b_levaRetro_acc.obj
 0003:00000d90       ?sStartRelationalopMap@?BC@??chart_debug_initialization@@9@9 0000000180074d90     c52_modello_2017b_levaRetro_acc.obj
 0003:00000d94       ?sEndRelationalopMap@?BC@??chart_debug_initialization@@9@9 0000000180074d94     c52_modello_2017b_levaRetro_acc.obj
 0003:00000d98       ?sRelationalopEps@?BC@??chart_debug_initialization@@9@9 0000000180074d98     c52_modello_2017b_levaRetro_acc.obj
 0003:00000d9c       ?sStartGuardMap@?BF@??chart_debug_initialization@@9@9 0000000180074d9c     c52_modello_2017b_levaRetro_acc.obj
 0003:00000da0       ?sStartGuardMap@?BD@??chart_debug_initialization@@9@9 0000000180074da0     c52_modello_2017b_levaRetro_acc.obj
 0003:00000da8       ?sEndGuardMap@?BD@??chart_debug_initialization@@9@9 0000000180074da8     c52_modello_2017b_levaRetro_acc.obj
 0003:00000db0       ?sPostFixPredicateTree@?BD@??chart_debug_initialization@@9@9 0000000180074db0     c52_modello_2017b_levaRetro_acc.obj
 0003:00000dbc       ?sEndGuardMap@?BF@??chart_debug_initialization@@9@9 0000000180074dbc     c52_modello_2017b_levaRetro_acc.obj
 0003:00000dc0       ?sStartRelationalopMap@?BE@??chart_debug_initialization@@9@9 0000000180074dc0     c52_modello_2017b_levaRetro_acc.obj
 0003:00000dc8       ?sEndRelationalopMap@?BE@??chart_debug_initialization@@9@9 0000000180074dc8     c52_modello_2017b_levaRetro_acc.obj
 0003:00000dd0       ?sRelationalopEps@?BE@??chart_debug_initialization@@9@9 0000000180074dd0     c52_modello_2017b_levaRetro_acc.obj
 0003:00000dd8       ?sRelationalopType@?BE@??chart_debug_initialization@@9@9 0000000180074dd8     c52_modello_2017b_levaRetro_acc.obj
 0003:00000de0       ?sStartRelationalopMap@?BG@??chart_debug_initialization@@9@9 0000000180074de0     c52_modello_2017b_levaRetro_acc.obj
 0003:00000de4       ?sEndRelationalopMap@?BG@??chart_debug_initialization@@9@9 0000000180074de4     c52_modello_2017b_levaRetro_acc.obj
 0003:00000de8       ?sRelationalopEps@?BG@??chart_debug_initialization@@9@9 0000000180074de8     c52_modello_2017b_levaRetro_acc.obj
 0003:00000dec       ?sStartGuardMap@?BL@??chart_debug_initialization@@9@9 0000000180074dec     c52_modello_2017b_levaRetro_acc.obj
 0003:00000df0       ?sStartGuardMap@?BH@??chart_debug_initialization@@9@9 0000000180074df0     c52_modello_2017b_levaRetro_acc.obj
 0003:00000dfc       ?sEndGuardMap@?BL@??chart_debug_initialization@@9@9 0000000180074dfc     c52_modello_2017b_levaRetro_acc.obj
 0003:00000e00       ?sEndGuardMap@?BH@??chart_debug_initialization@@9@9 0000000180074e00     c52_modello_2017b_levaRetro_acc.obj
 0003:00000e0c       ?sStartRelationalopMap@?BM@??chart_debug_initialization@@9@9 0000000180074e0c     c52_modello_2017b_levaRetro_acc.obj
 0003:00000e10       ?sPostFixPredicateTree@?BH@??chart_debug_initialization@@9@9 0000000180074e10     c52_modello_2017b_levaRetro_acc.obj
 0003:00000e24       ?sEndRelationalopMap@?BM@??chart_debug_initialization@@9@9 0000000180074e24     c52_modello_2017b_levaRetro_acc.obj
 0003:00000e28       ?sStartRelationalopMap@?BI@??chart_debug_initialization@@9@9 0000000180074e28     c52_modello_2017b_levaRetro_acc.obj
 0003:00000e34       ?sRelationalopEps@?BM@??chart_debug_initialization@@9@9 0000000180074e34     c52_modello_2017b_levaRetro_acc.obj
 0003:00000e38       ?sEndRelationalopMap@?BI@??chart_debug_initialization@@9@9 0000000180074e38     c52_modello_2017b_levaRetro_acc.obj
 0003:00000e44       ?sStartGuardMap@?CD@??chart_debug_initialization@@9@9 0000000180074e44     c52_modello_2017b_levaRetro_acc.obj
 0003:00000e48       ?sRelationalopEps@?BI@??chart_debug_initialization@@9@9 0000000180074e48     c52_modello_2017b_levaRetro_acc.obj
 0003:00000e54       ?sEndGuardMap@?CD@??chart_debug_initialization@@9@9 0000000180074e54     c52_modello_2017b_levaRetro_acc.obj
 0003:00000e58       ?sRelationalopType@?BI@??chart_debug_initialization@@9@9 0000000180074e58     c52_modello_2017b_levaRetro_acc.obj
 0003:00000e64       ?sStartRelationalopMap@?CE@??chart_debug_initialization@@9@9 0000000180074e64     c52_modello_2017b_levaRetro_acc.obj
 0003:00000e68       ?sStartGuardMap@?BJ@??chart_debug_initialization@@9@9 0000000180074e68     c52_modello_2017b_levaRetro_acc.obj
 0003:00000e70       ?sEndGuardMap@?BJ@??chart_debug_initialization@@9@9 0000000180074e70     c52_modello_2017b_levaRetro_acc.obj
 0003:00000e78       ?sPostFixPredicateTree@?BJ@??chart_debug_initialization@@9@9 0000000180074e78     c52_modello_2017b_levaRetro_acc.obj
 0003:00000e84       ?sEndRelationalopMap@?CE@??chart_debug_initialization@@9@9 0000000180074e84     c52_modello_2017b_levaRetro_acc.obj
 0003:00000e88       ?sStartRelationalopMap@?BK@??chart_debug_initialization@@9@9 0000000180074e88     c52_modello_2017b_levaRetro_acc.obj
 0003:00000e90       ?sEndRelationalopMap@?BK@??chart_debug_initialization@@9@9 0000000180074e90     c52_modello_2017b_levaRetro_acc.obj
 0003:00000e98       ?sRelationalopEps@?BK@??chart_debug_initialization@@9@9 0000000180074e98     c52_modello_2017b_levaRetro_acc.obj
 0003:00000ea0       ?sRelationalopType@?BK@??chart_debug_initialization@@9@9 0000000180074ea0     c52_modello_2017b_levaRetro_acc.obj
 0003:00000ea8       ?sStartGuardMap@?BN@??chart_debug_initialization@@9@9 0000000180074ea8     c52_modello_2017b_levaRetro_acc.obj
 0003:00000eb4       ?sRelationalopEps@?CE@??chart_debug_initialization@@9@9 0000000180074eb4     c52_modello_2017b_levaRetro_acc.obj
 0003:00000eb8       ?sEndGuardMap@?BN@??chart_debug_initialization@@9@9 0000000180074eb8     c52_modello_2017b_levaRetro_acc.obj
 0003:00000ec8       ?sPostFixPredicateTree@?BN@??chart_debug_initialization@@9@9 0000000180074ec8     c52_modello_2017b_levaRetro_acc.obj
 0003:00000ee0       ?sStartRelationalopMap@?BO@??chart_debug_initialization@@9@9 0000000180074ee0     c52_modello_2017b_levaRetro_acc.obj
 0003:00000ef0       ?sEndRelationalopMap@?BO@??chart_debug_initialization@@9@9 0000000180074ef0     c52_modello_2017b_levaRetro_acc.obj
 0003:00000f00       ?sRelationalopEps@?BO@??chart_debug_initialization@@9@9 0000000180074f00     c52_modello_2017b_levaRetro_acc.obj
 0003:00000f10       ?sRelationalopType@?BO@??chart_debug_initialization@@9@9 0000000180074f10     c52_modello_2017b_levaRetro_acc.obj
 0003:00000f20       ?sStartGuardMap@?BP@??chart_debug_initialization@@9@9 0000000180074f20     c52_modello_2017b_levaRetro_acc.obj
 0003:00000f28       ?sEndGuardMap@?BP@??chart_debug_initialization@@9@9 0000000180074f28     c52_modello_2017b_levaRetro_acc.obj
 0003:00000f30       ?sPostFixPredicateTree@?BP@??chart_debug_initialization@@9@9 0000000180074f30     c52_modello_2017b_levaRetro_acc.obj
 0003:00000f40       ?sStartRelationalopMap@?CA@??chart_debug_initialization@@9@9 0000000180074f40     c52_modello_2017b_levaRetro_acc.obj
 0003:00000f48       ?sEndRelationalopMap@?CA@??chart_debug_initialization@@9@9 0000000180074f48     c52_modello_2017b_levaRetro_acc.obj
 0003:00000f50       ?sRelationalopEps@?CA@??chart_debug_initialization@@9@9 0000000180074f50     c52_modello_2017b_levaRetro_acc.obj
 0003:00000f58       ?sRelationalopType@?CA@??chart_debug_initialization@@9@9 0000000180074f58     c52_modello_2017b_levaRetro_acc.obj
 0003:00000f60       ?sStartGuardMap@?CB@??chart_debug_initialization@@9@9 0000000180074f60     c52_modello_2017b_levaRetro_acc.obj
 0003:00000f70       ?sEndGuardMap@?CB@??chart_debug_initialization@@9@9 0000000180074f70     c52_modello_2017b_levaRetro_acc.obj
 0003:00000f80       ?sPostFixPredicateTree@?CB@??chart_debug_initialization@@9@9 0000000180074f80     c52_modello_2017b_levaRetro_acc.obj
 0003:00000f98       ?sStartRelationalopMap@?CC@??chart_debug_initialization@@9@9 0000000180074f98     c52_modello_2017b_levaRetro_acc.obj
 0003:00000fa8       ?sEndRelationalopMap@?CC@??chart_debug_initialization@@9@9 0000000180074fa8     c52_modello_2017b_levaRetro_acc.obj
 0003:00000fb8       ?sRelationalopEps@?CC@??chart_debug_initialization@@9@9 0000000180074fb8     c52_modello_2017b_levaRetro_acc.obj
 0003:00000fc8       ?sRelationalopType@?CC@??chart_debug_initialization@@9@9 0000000180074fc8     c52_modello_2017b_levaRetro_acc.obj
 0003:00000fd8       ?sStartGuardMap@?CF@??chart_debug_initialization@@9@9 0000000180074fd8     c52_modello_2017b_levaRetro_acc.obj
 0003:00000fe8       ?sEndGuardMap@?CF@??chart_debug_initialization@@9@9 0000000180074fe8     c52_modello_2017b_levaRetro_acc.obj
 0003:00000ff8       ?sPostFixPredicateTree@?CF@??chart_debug_initialization@@9@9 0000000180074ff8     c52_modello_2017b_levaRetro_acc.obj
 0003:00001018       ?sStartRelationalopMap@?CG@??chart_debug_initialization@@9@9 0000000180075018     c52_modello_2017b_levaRetro_acc.obj
 0003:00001028       ?sEndRelationalopMap@?CG@??chart_debug_initialization@@9@9 0000000180075028     c52_modello_2017b_levaRetro_acc.obj
 0003:00001038       ?sRelationalopEps@?CG@??chart_debug_initialization@@9@9 0000000180075038     c52_modello_2017b_levaRetro_acc.obj
 0003:00001048       ?sRelationalopType@?CG@??chart_debug_initialization@@9@9 0000000180075048     c52_modello_2017b_levaRetro_acc.obj
 0003:00001058       ?sStartGuardMap@?CH@??chart_debug_initialization@@9@9 0000000180075058     c52_modello_2017b_levaRetro_acc.obj
 0003:00001068       ?sEndGuardMap@?CH@??chart_debug_initialization@@9@9 0000000180075068     c52_modello_2017b_levaRetro_acc.obj
 0003:00001078       ?sPostFixPredicateTree@?CH@??chart_debug_initialization@@9@9 0000000180075078     c52_modello_2017b_levaRetro_acc.obj
 0003:00001098       ?sStartRelationalopMap@?CI@??chart_debug_initialization@@9@9 0000000180075098     c52_modello_2017b_levaRetro_acc.obj
 0003:000010a8       ?sEndRelationalopMap@?CI@??chart_debug_initialization@@9@9 00000001800750a8     c52_modello_2017b_levaRetro_acc.obj
 0003:000010b8       ?sRelationalopEps@?CI@??chart_debug_initialization@@9@9 00000001800750b8     c52_modello_2017b_levaRetro_acc.obj
 0003:000010c8       ?sRelationalopType@?CI@??chart_debug_initialization@@9@9 00000001800750c8     c52_modello_2017b_levaRetro_acc.obj
 0003:000010d8       ?sStartGuardMap@?CJ@??chart_debug_initialization@@9@9 00000001800750d8     c52_modello_2017b_levaRetro_acc.obj
 0003:000010e8       ?sEndGuardMap@?CJ@??chart_debug_initialization@@9@9 00000001800750e8     c52_modello_2017b_levaRetro_acc.obj
 0003:000010f8       ?sPostFixPredicateTree@?CJ@??chart_debug_initialization@@9@9 00000001800750f8     c52_modello_2017b_levaRetro_acc.obj
 0003:00001118       ?sStartRelationalopMap@?CK@??chart_debug_initialization@@9@9 0000000180075118     c52_modello_2017b_levaRetro_acc.obj
 0003:00001128       ?sEndRelationalopMap@?CK@??chart_debug_initialization@@9@9 0000000180075128     c52_modello_2017b_levaRetro_acc.obj
 0003:00001138       ?sRelationalopEps@?CK@??chart_debug_initialization@@9@9 0000000180075138     c52_modello_2017b_levaRetro_acc.obj
 0003:00001148       ?sRelationalopType@?CK@??chart_debug_initialization@@9@9 0000000180075148     c52_modello_2017b_levaRetro_acc.obj
 0003:00001158       ?sStartGuardMap@?CL@??chart_debug_initialization@@9@9 0000000180075158     c52_modello_2017b_levaRetro_acc.obj
 0003:00001168       ?sEndGuardMap@?CL@??chart_debug_initialization@@9@9 0000000180075168     c52_modello_2017b_levaRetro_acc.obj
 0003:00001178       ?sPostFixPredicateTree@?CL@??chart_debug_initialization@@9@9 0000000180075178     c52_modello_2017b_levaRetro_acc.obj
 0003:00001198       ?sStartRelationalopMap@?CM@??chart_debug_initialization@@9@9 0000000180075198     c52_modello_2017b_levaRetro_acc.obj
 0003:000011a8       ?sEndRelationalopMap@?CM@??chart_debug_initialization@@9@9 00000001800751a8     c52_modello_2017b_levaRetro_acc.obj
 0003:000011b8       ?sRelationalopEps@?CM@??chart_debug_initialization@@9@9 00000001800751b8     c52_modello_2017b_levaRetro_acc.obj
 0003:000011c8       ?sRelationalopType@?CM@??chart_debug_initialization@@9@9 00000001800751c8     c52_modello_2017b_levaRetro_acc.obj
 0003:000011d8       ?sStartGuardMap@?CN@??chart_debug_initialization@@9@9 00000001800751d8     c52_modello_2017b_levaRetro_acc.obj
 0003:000011e8       ?sEndGuardMap@?CN@??chart_debug_initialization@@9@9 00000001800751e8     c52_modello_2017b_levaRetro_acc.obj
 0003:000011f8       ?sPostFixPredicateTree@?CN@??chart_debug_initialization@@9@9 00000001800751f8     c52_modello_2017b_levaRetro_acc.obj
 0003:00001218       ?sStartRelationalopMap@?CO@??chart_debug_initialization@@9@9 0000000180075218     c52_modello_2017b_levaRetro_acc.obj
 0003:00001228       ?sEndRelationalopMap@?CO@??chart_debug_initialization@@9@9 0000000180075228     c52_modello_2017b_levaRetro_acc.obj
 0003:00001238       ?sRelationalopEps@?CO@??chart_debug_initialization@@9@9 0000000180075238     c52_modello_2017b_levaRetro_acc.obj
 0003:00001248       ?sRelationalopType@?CO@??chart_debug_initialization@@9@9 0000000180075248     c52_modello_2017b_levaRetro_acc.obj
 0003:00001258       ?sStartGuardMap@?CP@??chart_debug_initialization@@9@9 0000000180075258     c52_modello_2017b_levaRetro_acc.obj
 0003:00001268       ?sEndGuardMap@?CP@??chart_debug_initialization@@9@9 0000000180075268     c52_modello_2017b_levaRetro_acc.obj
 0003:00001278       ?sPostFixPredicateTree@?CP@??chart_debug_initialization@@9@9 0000000180075278     c52_modello_2017b_levaRetro_acc.obj
 0003:00001298       ?sStartRelationalopMap@?DA@??chart_debug_initialization@@9@9 0000000180075298     c52_modello_2017b_levaRetro_acc.obj
 0003:000012a8       ?sEndRelationalopMap@?DA@??chart_debug_initialization@@9@9 00000001800752a8     c52_modello_2017b_levaRetro_acc.obj
 0003:000012b8       ?sRelationalopEps@?DA@??chart_debug_initialization@@9@9 00000001800752b8     c52_modello_2017b_levaRetro_acc.obj
 0003:000012c8       ?sRelationalopType@?DA@??chart_debug_initialization@@9@9 00000001800752c8     c52_modello_2017b_levaRetro_acc.obj
 0003:000012d8       ?sStartGuardMap@?DB@??chart_debug_initialization@@9@9 00000001800752d8     c52_modello_2017b_levaRetro_acc.obj
 0003:000012e8       ?sEndGuardMap@?DB@??chart_debug_initialization@@9@9 00000001800752e8     c52_modello_2017b_levaRetro_acc.obj
 0003:000012f8       ?sPostFixPredicateTree@?DB@??chart_debug_initialization@@9@9 00000001800752f8     c52_modello_2017b_levaRetro_acc.obj
 0003:00001318       ?sStartRelationalopMap@?DC@??chart_debug_initialization@@9@9 0000000180075318     c52_modello_2017b_levaRetro_acc.obj
 0003:00001328       ?sEndRelationalopMap@?DC@??chart_debug_initialization@@9@9 0000000180075328     c52_modello_2017b_levaRetro_acc.obj
 0003:00001338       ?sRelationalopEps@?DC@??chart_debug_initialization@@9@9 0000000180075338     c52_modello_2017b_levaRetro_acc.obj
 0003:00001348       ?sRelationalopType@?DC@??chart_debug_initialization@@9@9 0000000180075348     c52_modello_2017b_levaRetro_acc.obj
 0003:00001358       ?sStartGuardMap@?BE@??chart_debug_initialization@@9@9 0000000180075358     c152_modello_2017b_levaRetro_acc.obj
 0003:0000135c       ?sEndGuardMap@?BE@??chart_debug_initialization@@9@9 000000018007535c     c152_modello_2017b_levaRetro_acc.obj
 0003:00001360       ?sStartRelationalopMap@?BF@??chart_debug_initialization@@9@9 0000000180075360     c152_modello_2017b_levaRetro_acc.obj
 0003:00001364       ?sEndRelationalopMap@?BF@??chart_debug_initialization@@9@9 0000000180075364     c152_modello_2017b_levaRetro_acc.obj
 0003:00001368       ?sRelationalopEps@?BF@??chart_debug_initialization@@9@9 0000000180075368     c152_modello_2017b_levaRetro_acc.obj
 0003:0000136c       ?sStartGuardMap@?BI@??chart_debug_initialization@@9@9 000000018007536c     c152_modello_2017b_levaRetro_acc.obj
 0003:00001370       ?sStartGuardMap@?BG@??chart_debug_initialization@@9@9 0000000180075370     c152_modello_2017b_levaRetro_acc.obj
 0003:00001378       ?sEndGuardMap@?BG@??chart_debug_initialization@@9@9 0000000180075378     c152_modello_2017b_levaRetro_acc.obj
 0003:00001380       ?sPostFixPredicateTree@?BG@??chart_debug_initialization@@9@9 0000000180075380     c152_modello_2017b_levaRetro_acc.obj
 0003:0000138c       ?sEndGuardMap@?BI@??chart_debug_initialization@@9@9 000000018007538c     c152_modello_2017b_levaRetro_acc.obj
 0003:00001390       ?sStartRelationalopMap@?BH@??chart_debug_initialization@@9@9 0000000180075390     c152_modello_2017b_levaRetro_acc.obj
 0003:00001398       ?sEndRelationalopMap@?BH@??chart_debug_initialization@@9@9 0000000180075398     c152_modello_2017b_levaRetro_acc.obj
 0003:000013a0       ?sRelationalopEps@?BH@??chart_debug_initialization@@9@9 00000001800753a0     c152_modello_2017b_levaRetro_acc.obj
 0003:000013a8       ?sRelationalopType@?BH@??chart_debug_initialization@@9@9 00000001800753a8     c152_modello_2017b_levaRetro_acc.obj
 0003:000013b0       ?sStartRelationalopMap@?BJ@??chart_debug_initialization@@9@9 00000001800753b0     c152_modello_2017b_levaRetro_acc.obj
 0003:000013b4       ?sEndRelationalopMap@?BJ@??chart_debug_initialization@@9@9 00000001800753b4     c152_modello_2017b_levaRetro_acc.obj
 0003:000013b8       ?sRelationalopEps@?BJ@??chart_debug_initialization@@9@9 00000001800753b8     c152_modello_2017b_levaRetro_acc.obj
 0003:000013bc       ?sStartGuardMap@?BO@??chart_debug_initialization@@9@9 00000001800753bc     c152_modello_2017b_levaRetro_acc.obj
 0003:000013c0       ?sStartGuardMap@?BK@??chart_debug_initialization@@9@9 00000001800753c0     c152_modello_2017b_levaRetro_acc.obj
 0003:000013cc       ?sEndGuardMap@?BO@??chart_debug_initialization@@9@9 00000001800753cc     c152_modello_2017b_levaRetro_acc.obj
 0003:000013d0       ?sEndGuardMap@?BK@??chart_debug_initialization@@9@9 00000001800753d0     c152_modello_2017b_levaRetro_acc.obj
 0003:000013dc       ?sStartRelationalopMap@?BP@??chart_debug_initialization@@9@9 00000001800753dc     c152_modello_2017b_levaRetro_acc.obj
 0003:000013e0       ?sPostFixPredicateTree@?BK@??chart_debug_initialization@@9@9 00000001800753e0     c152_modello_2017b_levaRetro_acc.obj
 0003:000013f4       ?sEndRelationalopMap@?BP@??chart_debug_initialization@@9@9 00000001800753f4     c152_modello_2017b_levaRetro_acc.obj
 0003:000013f8       ?sStartRelationalopMap@?BL@??chart_debug_initialization@@9@9 00000001800753f8     c152_modello_2017b_levaRetro_acc.obj
 0003:00001404       ?sRelationalopEps@?BP@??chart_debug_initialization@@9@9 0000000180075404     c152_modello_2017b_levaRetro_acc.obj
 0003:00001408       ?sEndRelationalopMap@?BL@??chart_debug_initialization@@9@9 0000000180075408     c152_modello_2017b_levaRetro_acc.obj
 0003:00001414       ?sStartGuardMap@?CG@??chart_debug_initialization@@9@9 0000000180075414     c152_modello_2017b_levaRetro_acc.obj
 0003:00001418       ?sRelationalopEps@?BL@??chart_debug_initialization@@9@9 0000000180075418     c152_modello_2017b_levaRetro_acc.obj
 0003:00001424       ?sEndGuardMap@?CG@??chart_debug_initialization@@9@9 0000000180075424     c152_modello_2017b_levaRetro_acc.obj
 0003:00001428       ?sRelationalopType@?BL@??chart_debug_initialization@@9@9 0000000180075428     c152_modello_2017b_levaRetro_acc.obj
 0003:00001434       ?sStartRelationalopMap@?CH@??chart_debug_initialization@@9@9 0000000180075434     c152_modello_2017b_levaRetro_acc.obj
 0003:00001438       ?sStartGuardMap@?BM@??chart_debug_initialization@@9@9 0000000180075438     c152_modello_2017b_levaRetro_acc.obj
 0003:00001440       ?sEndGuardMap@?BM@??chart_debug_initialization@@9@9 0000000180075440     c152_modello_2017b_levaRetro_acc.obj
 0003:00001448       ?sPostFixPredicateTree@?BM@??chart_debug_initialization@@9@9 0000000180075448     c152_modello_2017b_levaRetro_acc.obj
 0003:00001454       ?sEndRelationalopMap@?CH@??chart_debug_initialization@@9@9 0000000180075454     c152_modello_2017b_levaRetro_acc.obj
 0003:00001458       ?sStartRelationalopMap@?BN@??chart_debug_initialization@@9@9 0000000180075458     c152_modello_2017b_levaRetro_acc.obj
 0003:00001460       ?sEndRelationalopMap@?BN@??chart_debug_initialization@@9@9 0000000180075460     c152_modello_2017b_levaRetro_acc.obj
 0003:00001468       ?sRelationalopEps@?BN@??chart_debug_initialization@@9@9 0000000180075468     c152_modello_2017b_levaRetro_acc.obj
 0003:00001470       ?sRelationalopType@?BN@??chart_debug_initialization@@9@9 0000000180075470     c152_modello_2017b_levaRetro_acc.obj
 0003:00001478       ?sStartGuardMap@?CA@??chart_debug_initialization@@9@9 0000000180075478     c152_modello_2017b_levaRetro_acc.obj
 0003:00001484       ?sRelationalopEps@?CH@??chart_debug_initialization@@9@9 0000000180075484     c152_modello_2017b_levaRetro_acc.obj
 0003:00001488       ?sEndGuardMap@?CA@??chart_debug_initialization@@9@9 0000000180075488     c152_modello_2017b_levaRetro_acc.obj
 0003:00001494       ?sStartGuardMap@?DG@??chart_debug_initialization@@9@9 0000000180075494     c152_modello_2017b_levaRetro_acc.obj
 0003:00001498       ?sPostFixPredicateTree@?CA@??chart_debug_initialization@@9@9 0000000180075498     c152_modello_2017b_levaRetro_acc.obj
 0003:000014ac       ?sEndGuardMap@?DG@??chart_debug_initialization@@9@9 00000001800754ac     c152_modello_2017b_levaRetro_acc.obj
 0003:000014b0       ?sStartRelationalopMap@?CB@??chart_debug_initialization@@9@9 00000001800754b0     c152_modello_2017b_levaRetro_acc.obj
 0003:000014bc       ?sStartRelationalopMap@?DH@??chart_debug_initialization@@9@9 00000001800754bc     c152_modello_2017b_levaRetro_acc.obj
 0003:000014c0       ?sEndRelationalopMap@?CB@??chart_debug_initialization@@9@9 00000001800754c0     c152_modello_2017b_levaRetro_acc.obj
 0003:000014cc       ?sEndRelationalopMap@?DH@??chart_debug_initialization@@9@9 00000001800754cc     c152_modello_2017b_levaRetro_acc.obj
 0003:000014d0       ?sRelationalopEps@?CB@??chart_debug_initialization@@9@9 00000001800754d0     c152_modello_2017b_levaRetro_acc.obj
 0003:000014dc       ?sRelationalopEps@?DH@??chart_debug_initialization@@9@9 00000001800754dc     c152_modello_2017b_levaRetro_acc.obj
 0003:000014e0       ?sRelationalopType@?CB@??chart_debug_initialization@@9@9 00000001800754e0     c152_modello_2017b_levaRetro_acc.obj
 0003:000014ec       ?sRelationalopType@?DH@??chart_debug_initialization@@9@9 00000001800754ec     c152_modello_2017b_levaRetro_acc.obj
 0003:000014f0       ?sStartGuardMap@?CC@??chart_debug_initialization@@9@9 00000001800754f0     c152_modello_2017b_levaRetro_acc.obj
 0003:000014f8       ?sEndGuardMap@?CC@??chart_debug_initialization@@9@9 00000001800754f8     c152_modello_2017b_levaRetro_acc.obj
 0003:00001500       ?sPostFixPredicateTree@?CC@??chart_debug_initialization@@9@9 0000000180075500     c152_modello_2017b_levaRetro_acc.obj
 0003:0000150c       ?sStartGuardMap@?DK@??chart_debug_initialization@@9@9 000000018007550c     c152_modello_2017b_levaRetro_acc.obj
 0003:00001510       ?sStartRelationalopMap@?CD@??chart_debug_initialization@@9@9 0000000180075510     c152_modello_2017b_levaRetro_acc.obj
 0003:00001518       ?sEndRelationalopMap@?CD@??chart_debug_initialization@@9@9 0000000180075518     c152_modello_2017b_levaRetro_acc.obj
 0003:00001520       ?sRelationalopEps@?CD@??chart_debug_initialization@@9@9 0000000180075520     c152_modello_2017b_levaRetro_acc.obj
 0003:00001528       ?sRelationalopType@?CD@??chart_debug_initialization@@9@9 0000000180075528     c152_modello_2017b_levaRetro_acc.obj
 0003:00001530       ?sStartGuardMap@?CE@??chart_debug_initialization@@9@9 0000000180075530     c152_modello_2017b_levaRetro_acc.obj
 0003:0000153c       ?sEndGuardMap@?DK@??chart_debug_initialization@@9@9 000000018007553c     c152_modello_2017b_levaRetro_acc.obj
 0003:00001540       ?sEndGuardMap@?CE@??chart_debug_initialization@@9@9 0000000180075540     c152_modello_2017b_levaRetro_acc.obj
 0003:0000154c       ?sStartRelationalopMap@?DL@??chart_debug_initialization@@9@9 000000018007554c     c152_modello_2017b_levaRetro_acc.obj
 0003:00001550       ?sPostFixPredicateTree@?CE@??chart_debug_initialization@@9@9 0000000180075550     c152_modello_2017b_levaRetro_acc.obj
 0003:00001564       ?sEndRelationalopMap@?DL@??chart_debug_initialization@@9@9 0000000180075564     c152_modello_2017b_levaRetro_acc.obj
 0003:00001568       ?sStartRelationalopMap@?CF@??chart_debug_initialization@@9@9 0000000180075568     c152_modello_2017b_levaRetro_acc.obj
 0003:00001574       ?sRelationalopEps@?DL@??chart_debug_initialization@@9@9 0000000180075574     c152_modello_2017b_levaRetro_acc.obj
 0003:00001578       ?sEndRelationalopMap@?CF@??chart_debug_initialization@@9@9 0000000180075578     c152_modello_2017b_levaRetro_acc.obj
 0003:00001584       ?sStartGuardMap@?DO@??chart_debug_initialization@@9@9 0000000180075584     c152_modello_2017b_levaRetro_acc.obj
 0003:00001588       ?sRelationalopEps@?CF@??chart_debug_initialization@@9@9 0000000180075588     c152_modello_2017b_levaRetro_acc.obj
 0003:00001594       ?sEndGuardMap@?DO@??chart_debug_initialization@@9@9 0000000180075594     c152_modello_2017b_levaRetro_acc.obj
 0003:00001598       ?sRelationalopType@?CF@??chart_debug_initialization@@9@9 0000000180075598     c152_modello_2017b_levaRetro_acc.obj
 0003:000015a4       ?sStartRelationalopMap@?DP@??chart_debug_initialization@@9@9 00000001800755a4     c152_modello_2017b_levaRetro_acc.obj
 0003:000015a8       ?sStartGuardMap@?CI@??chart_debug_initialization@@9@9 00000001800755a8     c152_modello_2017b_levaRetro_acc.obj
 0003:000015b8       ?sEndGuardMap@?CI@??chart_debug_initialization@@9@9 00000001800755b8     c152_modello_2017b_levaRetro_acc.obj
 0003:000015c8       ?sPostFixPredicateTree@?CI@??chart_debug_initialization@@9@9 00000001800755c8     c152_modello_2017b_levaRetro_acc.obj
 0003:000015e4       ?sEndRelationalopMap@?DP@??chart_debug_initialization@@9@9 00000001800755e4     c152_modello_2017b_levaRetro_acc.obj
 0003:000015e8       ?sStartRelationalopMap@?CJ@??chart_debug_initialization@@9@9 00000001800755e8     c152_modello_2017b_levaRetro_acc.obj
 0003:000015f8       ?sEndRelationalopMap@?CJ@??chart_debug_initialization@@9@9 00000001800755f8     c152_modello_2017b_levaRetro_acc.obj
 0003:00001608       ?sRelationalopEps@?CJ@??chart_debug_initialization@@9@9 0000000180075608     c152_modello_2017b_levaRetro_acc.obj
 0003:00001618       ?sRelationalopType@?CJ@??chart_debug_initialization@@9@9 0000000180075618     c152_modello_2017b_levaRetro_acc.obj
 0003:00001628       ?sStartGuardMap@?CK@??chart_debug_initialization@@9@9 0000000180075628     c152_modello_2017b_levaRetro_acc.obj
 0003:00001638       ?sEndGuardMap@?CK@??chart_debug_initialization@@9@9 0000000180075638     c152_modello_2017b_levaRetro_acc.obj
 0003:00001648       ?sPostFixPredicateTree@?CK@??chart_debug_initialization@@9@9 0000000180075648     c152_modello_2017b_levaRetro_acc.obj
 0003:00001664       ?sRelationalopEps@?DP@??chart_debug_initialization@@9@9 0000000180075664     c152_modello_2017b_levaRetro_acc.obj
 0003:00001668       ?sStartRelationalopMap@?CL@??chart_debug_initialization@@9@9 0000000180075668     c152_modello_2017b_levaRetro_acc.obj
 0003:00001678       ?sEndRelationalopMap@?CL@??chart_debug_initialization@@9@9 0000000180075678     c152_modello_2017b_levaRetro_acc.obj
 0003:00001688       ?sRelationalopEps@?CL@??chart_debug_initialization@@9@9 0000000180075688     c152_modello_2017b_levaRetro_acc.obj
 0003:00001698       ?sRelationalopType@?CL@??chart_debug_initialization@@9@9 0000000180075698     c152_modello_2017b_levaRetro_acc.obj
 0003:000016a8       ?sStartGuardMap@?CM@??chart_debug_initialization@@9@9 00000001800756a8     c152_modello_2017b_levaRetro_acc.obj
 0003:000016b8       ?sEndGuardMap@?CM@??chart_debug_initialization@@9@9 00000001800756b8     c152_modello_2017b_levaRetro_acc.obj
 0003:000016c8       ?sPostFixPredicateTree@?CM@??chart_debug_initialization@@9@9 00000001800756c8     c152_modello_2017b_levaRetro_acc.obj
 0003:000016e4       ?sStartGuardMap@?EC@??chart_debug_initialization@@9@9 00000001800756e4     c152_modello_2017b_levaRetro_acc.obj
 0003:000016e8       ?sStartRelationalopMap@?CN@??chart_debug_initialization@@9@9 00000001800756e8     c152_modello_2017b_levaRetro_acc.obj
 0003:000016f8       ?sEndRelationalopMap@?CN@??chart_debug_initialization@@9@9 00000001800756f8     c152_modello_2017b_levaRetro_acc.obj
 0003:00001708       ?sRelationalopEps@?CN@??chart_debug_initialization@@9@9 0000000180075708     c152_modello_2017b_levaRetro_acc.obj
 0003:00001718       ?sRelationalopType@?CN@??chart_debug_initialization@@9@9 0000000180075718     c152_modello_2017b_levaRetro_acc.obj
 0003:00001728       ?sStartGuardMap@?CO@??chart_debug_initialization@@9@9 0000000180075728     c152_modello_2017b_levaRetro_acc.obj
 0003:00001738       ?sEndGuardMap@?CO@??chart_debug_initialization@@9@9 0000000180075738     c152_modello_2017b_levaRetro_acc.obj
 0003:00001748       ?sPostFixPredicateTree@?CO@??chart_debug_initialization@@9@9 0000000180075748     c152_modello_2017b_levaRetro_acc.obj
 0003:00001764       ?sEndGuardMap@?EC@??chart_debug_initialization@@9@9 0000000180075764     c152_modello_2017b_levaRetro_acc.obj
 0003:00001768       ?sStartRelationalopMap@?CP@??chart_debug_initialization@@9@9 0000000180075768     c152_modello_2017b_levaRetro_acc.obj
 0003:00001778       ?sEndRelationalopMap@?CP@??chart_debug_initialization@@9@9 0000000180075778     c152_modello_2017b_levaRetro_acc.obj
 0003:00001788       ?sRelationalopEps@?CP@??chart_debug_initialization@@9@9 0000000180075788     c152_modello_2017b_levaRetro_acc.obj
 0003:00001798       ?sRelationalopType@?CP@??chart_debug_initialization@@9@9 0000000180075798     c152_modello_2017b_levaRetro_acc.obj
 0003:000017a8       c152_debug_family_names    00000001800757a8     c152_modello_2017b_levaRetro_acc.obj
 0003:000017d0       ?sStartGuardMap@?DA@??chart_debug_initialization@@9@9 00000001800757d0     c152_modello_2017b_levaRetro_acc.obj
 0003:000017e0       ?sEndGuardMap@?DA@??chart_debug_initialization@@9@9 00000001800757e0     c152_modello_2017b_levaRetro_acc.obj
 0003:000017f0       ?sPostFixPredicateTree@?DA@??chart_debug_initialization@@9@9 00000001800757f0     c152_modello_2017b_levaRetro_acc.obj
 0003:0000180c       ?sStartRelationalopMap@?ED@??chart_debug_initialization@@9@9 000000018007580c     c152_modello_2017b_levaRetro_acc.obj
 0003:00001810       ?sStartRelationalopMap@?DB@??chart_debug_initialization@@9@9 0000000180075810     c152_modello_2017b_levaRetro_acc.obj
 0003:00001820       ?sEndRelationalopMap@?DB@??chart_debug_initialization@@9@9 0000000180075820     c152_modello_2017b_levaRetro_acc.obj
 0003:00001830       ?sRelationalopEps@?DB@??chart_debug_initialization@@9@9 0000000180075830     c152_modello_2017b_levaRetro_acc.obj
 0003:00001840       ?sRelationalopType@?DB@??chart_debug_initialization@@9@9 0000000180075840     c152_modello_2017b_levaRetro_acc.obj
 0003:00001850       ?sStartGuardMap@?DC@??chart_debug_initialization@@9@9 0000000180075850     c152_modello_2017b_levaRetro_acc.obj
 0003:00001860       ?sEndGuardMap@?DC@??chart_debug_initialization@@9@9 0000000180075860     c152_modello_2017b_levaRetro_acc.obj
 0003:00001870       ?sPostFixPredicateTree@?DC@??chart_debug_initialization@@9@9 0000000180075870     c152_modello_2017b_levaRetro_acc.obj
 0003:0000188c       ?sEndRelationalopMap@?ED@??chart_debug_initialization@@9@9 000000018007588c     c152_modello_2017b_levaRetro_acc.obj
 0003:00001890       ?sStartRelationalopMap@?DD@??chart_debug_initialization@@9@9 0000000180075890     c152_modello_2017b_levaRetro_acc.obj
 0003:000018a0       ?sEndRelationalopMap@?DD@??chart_debug_initialization@@9@9 00000001800758a0     c152_modello_2017b_levaRetro_acc.obj
 0003:000018b0       ?sRelationalopEps@?DD@??chart_debug_initialization@@9@9 00000001800758b0     c152_modello_2017b_levaRetro_acc.obj
 0003:000018c0       ?sRelationalopType@?DD@??chart_debug_initialization@@9@9 00000001800758c0     c152_modello_2017b_levaRetro_acc.obj
 0003:000018d0       ?sStartGuardMap@?DE@??chart_debug_initialization@@9@9 00000001800758d0     c152_modello_2017b_levaRetro_acc.obj
 0003:000018e0       ?sEndGuardMap@?DE@??chart_debug_initialization@@9@9 00000001800758e0     c152_modello_2017b_levaRetro_acc.obj
 0003:000018f0       ?sPostFixPredicateTree@?DE@??chart_debug_initialization@@9@9 00000001800758f0     c152_modello_2017b_levaRetro_acc.obj
 0003:0000190c       ?sRelationalopEps@?ED@??chart_debug_initialization@@9@9 000000018007590c     c152_modello_2017b_levaRetro_acc.obj
 0003:00001910       ?sStartRelationalopMap@?DF@??chart_debug_initialization@@9@9 0000000180075910     c152_modello_2017b_levaRetro_acc.obj
 0003:00001920       ?sEndRelationalopMap@?DF@??chart_debug_initialization@@9@9 0000000180075920     c152_modello_2017b_levaRetro_acc.obj
 0003:00001930       ?sRelationalopEps@?DF@??chart_debug_initialization@@9@9 0000000180075930     c152_modello_2017b_levaRetro_acc.obj
 0003:00001940       ?sRelationalopType@?DF@??chart_debug_initialization@@9@9 0000000180075940     c152_modello_2017b_levaRetro_acc.obj
 0003:00001950       ?sStartGuardMap@?DI@??chart_debug_initialization@@9@9 0000000180075950     c152_modello_2017b_levaRetro_acc.obj
 0003:00001958       ?sEndGuardMap@?DI@??chart_debug_initialization@@9@9 0000000180075958     c152_modello_2017b_levaRetro_acc.obj
 0003:00001960       ?sPostFixPredicateTree@?DI@??chart_debug_initialization@@9@9 0000000180075960     c152_modello_2017b_levaRetro_acc.obj
 0003:0000196c       ?sRelationalopType@?ED@??chart_debug_initialization@@9@9 000000018007596c     c152_modello_2017b_levaRetro_acc.obj
 0003:00001970       ?sStartRelationalopMap@?DJ@??chart_debug_initialization@@9@9 0000000180075970     c152_modello_2017b_levaRetro_acc.obj
 0003:00001978       ?sEndRelationalopMap@?DJ@??chart_debug_initialization@@9@9 0000000180075978     c152_modello_2017b_levaRetro_acc.obj
 0003:00001980       ?sRelationalopEps@?DJ@??chart_debug_initialization@@9@9 0000000180075980     c152_modello_2017b_levaRetro_acc.obj
 0003:00001988       ?sStartGuardMap@?DM@??chart_debug_initialization@@9@9 0000000180075988     c152_modello_2017b_levaRetro_acc.obj
 0003:00001990       ?sEndGuardMap@?DM@??chart_debug_initialization@@9@9 0000000180075990     c152_modello_2017b_levaRetro_acc.obj
 0003:00001998       ?sPostFixPredicateTree@?DM@??chart_debug_initialization@@9@9 0000000180075998     c152_modello_2017b_levaRetro_acc.obj
 0003:000019a4       ?sStartGuardMap@?EE@??chart_debug_initialization@@9@9 00000001800759a4     c152_modello_2017b_levaRetro_acc.obj
 0003:000019a8       ?sStartRelationalopMap@?DN@??chart_debug_initialization@@9@9 00000001800759a8     c152_modello_2017b_levaRetro_acc.obj
 0003:000019b0       ?sEndRelationalopMap@?DN@??chart_debug_initialization@@9@9 00000001800759b0     c152_modello_2017b_levaRetro_acc.obj
 0003:000019b8       ?sRelationalopEps@?DN@??chart_debug_initialization@@9@9 00000001800759b8     c152_modello_2017b_levaRetro_acc.obj
 0003:000019c0       ?sStartGuardMap@?EA@??chart_debug_initialization@@9@9 00000001800759c0     c152_modello_2017b_levaRetro_acc.obj
 0003:000019cc       ?sEndGuardMap@?EE@??chart_debug_initialization@@9@9 00000001800759cc     c152_modello_2017b_levaRetro_acc.obj
 0003:000019d0       ?sEndGuardMap@?EA@??chart_debug_initialization@@9@9 00000001800759d0     c152_modello_2017b_levaRetro_acc.obj
 0003:000019dc       ?sStartRelationalopMap@?EF@??chart_debug_initialization@@9@9 00000001800759dc     c152_modello_2017b_levaRetro_acc.obj
 0003:000019e0       ?sPostFixPredicateTree@?EA@??chart_debug_initialization@@9@9 00000001800759e0     c152_modello_2017b_levaRetro_acc.obj
 0003:000019f4       ?sEndRelationalopMap@?EF@??chart_debug_initialization@@9@9 00000001800759f4     c152_modello_2017b_levaRetro_acc.obj
 0003:000019f8       ?sStartRelationalopMap@?EB@??chart_debug_initialization@@9@9 00000001800759f8     c152_modello_2017b_levaRetro_acc.obj
 0003:00001a04       ?sRelationalopEps@?EF@??chart_debug_initialization@@9@9 0000000180075a04     c152_modello_2017b_levaRetro_acc.obj
 0003:00001a08       ?sEndRelationalopMap@?EB@??chart_debug_initialization@@9@9 0000000180075a08     c152_modello_2017b_levaRetro_acc.obj
 0003:00001a14       ?sRelationalopType@?EF@??chart_debug_initialization@@9@9 0000000180075a14     c152_modello_2017b_levaRetro_acc.obj
 0003:00001a18       ?sRelationalopEps@?EB@??chart_debug_initialization@@9@9 0000000180075a18     c152_modello_2017b_levaRetro_acc.obj
 0003:00001a28       ?sRelationalopType@?EB@??chart_debug_initialization@@9@9 0000000180075a28     c152_modello_2017b_levaRetro_acc.obj
 0003:00001a38       ?sStartGuardMap@?EG@??chart_debug_initialization@@9@9 0000000180075a38     c152_modello_2017b_levaRetro_acc.obj
 0003:00001a48       ?sEndGuardMap@?EG@??chart_debug_initialization@@9@9 0000000180075a48     c152_modello_2017b_levaRetro_acc.obj
 0003:00001a58       ?sPostFixPredicateTree@?EG@??chart_debug_initialization@@9@9 0000000180075a58     c152_modello_2017b_levaRetro_acc.obj
 0003:00001a70       ?sStartRelationalopMap@?EH@??chart_debug_initialization@@9@9 0000000180075a70     c152_modello_2017b_levaRetro_acc.obj
 0003:00001a80       ?sEndRelationalopMap@?EH@??chart_debug_initialization@@9@9 0000000180075a80     c152_modello_2017b_levaRetro_acc.obj
 0003:00001a90       ?sRelationalopEps@?EH@??chart_debug_initialization@@9@9 0000000180075a90     c152_modello_2017b_levaRetro_acc.obj
 0003:00001aa0       ?sRelationalopType@?EH@??chart_debug_initialization@@9@9 0000000180075aa0     c152_modello_2017b_levaRetro_acc.obj
 0003:00001ab0       ?checksum@?1??sf_get_sfun_dwork_checksum@@9@9 0000000180075ab0     c152_modello_2017b_levaRetro_acc.obj
 0003:00001ac0       ?checksum@?1??sf_get_sfun_dwork_checksum@@9@9 0000000180075ac0     c451_modello_2017b_levaRetro_acc.obj
 0003:00001ad0       ?sStartGuardMap@?BG@??chart_debug_initialization@@9@9 0000000180075ad0     c451_modello_2017b_levaRetro_acc.obj
 0003:00001ad4       ?sEndGuardMap@?BG@??chart_debug_initialization@@9@9 0000000180075ad4     c451_modello_2017b_levaRetro_acc.obj
 0003:00001ad8       ?sStartRelationalopMap@?BH@??chart_debug_initialization@@9@9 0000000180075ad8     c451_modello_2017b_levaRetro_acc.obj
 0003:00001adc       ?sEndRelationalopMap@?BH@??chart_debug_initialization@@9@9 0000000180075adc     c451_modello_2017b_levaRetro_acc.obj
 0003:00001ae0       ?sRelationalopEps@?BH@??chart_debug_initialization@@9@9 0000000180075ae0     c451_modello_2017b_levaRetro_acc.obj
 0003:00001ae4       ?sStartGuardMap@?BI@??chart_debug_initialization@@9@9 0000000180075ae4     c451_modello_2017b_levaRetro_acc.obj
 0003:00001ae8       ?sEndGuardMap@?BI@??chart_debug_initialization@@9@9 0000000180075ae8     c451_modello_2017b_levaRetro_acc.obj
 0003:00001aec       ?sStartRelationalopMap@?BJ@??chart_debug_initialization@@9@9 0000000180075aec     c451_modello_2017b_levaRetro_acc.obj
 0003:00001af0       ?sEndRelationalopMap@?BJ@??chart_debug_initialization@@9@9 0000000180075af0     c451_modello_2017b_levaRetro_acc.obj
 0003:00001af4       ?sRelationalopEps@?BJ@??chart_debug_initialization@@9@9 0000000180075af4     c451_modello_2017b_levaRetro_acc.obj
 0003:00001af8       ?sStartGuardMap@?BK@??chart_debug_initialization@@9@9 0000000180075af8     c451_modello_2017b_levaRetro_acc.obj
 0003:00001b00       ?sEndGuardMap@?BK@??chart_debug_initialization@@9@9 0000000180075b00     c451_modello_2017b_levaRetro_acc.obj
 0003:00001b08       ?sPostFixPredicateTree@?BK@??chart_debug_initialization@@9@9 0000000180075b08     c451_modello_2017b_levaRetro_acc.obj
 0003:00001b14       ?sStartGuardMap@?BM@??chart_debug_initialization@@9@9 0000000180075b14     c451_modello_2017b_levaRetro_acc.obj
 0003:00001b18       ?sStartRelationalopMap@?BL@??chart_debug_initialization@@9@9 0000000180075b18     c451_modello_2017b_levaRetro_acc.obj
 0003:00001b20       ?sEndRelationalopMap@?BL@??chart_debug_initialization@@9@9 0000000180075b20     c451_modello_2017b_levaRetro_acc.obj
 0003:00001b28       ?sRelationalopEps@?BL@??chart_debug_initialization@@9@9 0000000180075b28     c451_modello_2017b_levaRetro_acc.obj
 0003:00001b30       ?sRelationalopType@?BL@??chart_debug_initialization@@9@9 0000000180075b30     c451_modello_2017b_levaRetro_acc.obj
 0003:00001b38       ?sEndGuardMap@?BM@??chart_debug_initialization@@9@9 0000000180075b38     c451_modello_2017b_levaRetro_acc.obj
 0003:00001b3c       ?sStartRelationalopMap@?BN@??chart_debug_initialization@@9@9 0000000180075b3c     c451_modello_2017b_levaRetro_acc.obj
 0003:00001b40       ?sEndRelationalopMap@?BN@??chart_debug_initialization@@9@9 0000000180075b40     c451_modello_2017b_levaRetro_acc.obj
 0003:00001b44       ?sRelationalopEps@?BN@??chart_debug_initialization@@9@9 0000000180075b44     c451_modello_2017b_levaRetro_acc.obj
 0003:00001b48       ?sRelationalopType@?BN@??chart_debug_initialization@@9@9 0000000180075b48     c451_modello_2017b_levaRetro_acc.obj
 0003:00001b4c       ?sStartGuardMap@?BO@??chart_debug_initialization@@9@9 0000000180075b4c     c451_modello_2017b_levaRetro_acc.obj
 0003:00001b50       ?sEndGuardMap@?BO@??chart_debug_initialization@@9@9 0000000180075b50     c451_modello_2017b_levaRetro_acc.obj
 0003:00001b54       ?sStartRelationalopMap@?BP@??chart_debug_initialization@@9@9 0000000180075b54     c451_modello_2017b_levaRetro_acc.obj
 0003:00001b58       ?sEndRelationalopMap@?BP@??chart_debug_initialization@@9@9 0000000180075b58     c451_modello_2017b_levaRetro_acc.obj
 0003:00001b5c       ?sRelationalopEps@?BP@??chart_debug_initialization@@9@9 0000000180075b5c     c451_modello_2017b_levaRetro_acc.obj
 0003:00001b60       ?sRelationalopType@?BP@??chart_debug_initialization@@9@9 0000000180075b60     c451_modello_2017b_levaRetro_acc.obj
 0003:00001b64       ?sStartGuardMap@?CA@??chart_debug_initialization@@9@9 0000000180075b64     c451_modello_2017b_levaRetro_acc.obj
 0003:00001b68       ?sEndGuardMap@?CA@??chart_debug_initialization@@9@9 0000000180075b68     c451_modello_2017b_levaRetro_acc.obj
 0003:00001b6c       ?sStartRelationalopMap@?CB@??chart_debug_initialization@@9@9 0000000180075b6c     c451_modello_2017b_levaRetro_acc.obj
 0003:00001b70       ?sEndRelationalopMap@?CB@??chart_debug_initialization@@9@9 0000000180075b70     c451_modello_2017b_levaRetro_acc.obj
 0003:00001b74       ?sRelationalopEps@?CB@??chart_debug_initialization@@9@9 0000000180075b74     c451_modello_2017b_levaRetro_acc.obj
 0003:00001b78       ?sRelationalopType@?CB@??chart_debug_initialization@@9@9 0000000180075b78     c451_modello_2017b_levaRetro_acc.obj
 0003:00001b7c       ?sStartGuardMap@?CC@??chart_debug_initialization@@9@9 0000000180075b7c     c451_modello_2017b_levaRetro_acc.obj
 0003:00001b80       ?sEndGuardMap@?CC@??chart_debug_initialization@@9@9 0000000180075b80     c451_modello_2017b_levaRetro_acc.obj
 0003:00001b84       ?sStartRelationalopMap@?CD@??chart_debug_initialization@@9@9 0000000180075b84     c451_modello_2017b_levaRetro_acc.obj
 0003:00001b88       ?sEndRelationalopMap@?CD@??chart_debug_initialization@@9@9 0000000180075b88     c451_modello_2017b_levaRetro_acc.obj
 0003:00001b8c       ?sRelationalopEps@?CD@??chart_debug_initialization@@9@9 0000000180075b8c     c451_modello_2017b_levaRetro_acc.obj
 0003:00001b90       ?sRelationalopType@?CD@??chart_debug_initialization@@9@9 0000000180075b90     c451_modello_2017b_levaRetro_acc.obj
 0003:00001b94       ?sStartGuardMap@?CG@??chart_debug_initialization@@9@9 0000000180075b94     c451_modello_2017b_levaRetro_acc.obj
 0003:00001b98       ?sStartGuardMap@?CE@??chart_debug_initialization@@9@9 0000000180075b98     c451_modello_2017b_levaRetro_acc.obj
 0003:00001ba0       ?sEndGuardMap@?CE@??chart_debug_initialization@@9@9 0000000180075ba0     c451_modello_2017b_levaRetro_acc.obj
 0003:00001ba8       ?sPostFixPredicateTree@?CE@??chart_debug_initialization@@9@9 0000000180075ba8     c451_modello_2017b_levaRetro_acc.obj
 0003:00001bb4       ?sEndGuardMap@?CG@??chart_debug_initialization@@9@9 0000000180075bb4     c451_modello_2017b_levaRetro_acc.obj
 0003:00001bb8       ?sStartRelationalopMap@?CF@??chart_debug_initialization@@9@9 0000000180075bb8     c451_modello_2017b_levaRetro_acc.obj
 0003:00001bc0       ?sEndRelationalopMap@?CF@??chart_debug_initialization@@9@9 0000000180075bc0     c451_modello_2017b_levaRetro_acc.obj
 0003:00001bc8       ?sRelationalopEps@?CF@??chart_debug_initialization@@9@9 0000000180075bc8     c451_modello_2017b_levaRetro_acc.obj
 0003:00001bd0       ?sRelationalopType@?CF@??chart_debug_initialization@@9@9 0000000180075bd0     c451_modello_2017b_levaRetro_acc.obj
 0003:00001bd8       ?sStartRelationalopMap@?CH@??chart_debug_initialization@@9@9 0000000180075bd8     c451_modello_2017b_levaRetro_acc.obj
 0003:00001bdc       ?sEndRelationalopMap@?CH@??chart_debug_initialization@@9@9 0000000180075bdc     c451_modello_2017b_levaRetro_acc.obj
 0003:00001be0       ?sRelationalopEps@?CH@??chart_debug_initialization@@9@9 0000000180075be0     c451_modello_2017b_levaRetro_acc.obj
 0003:00001be4       ?sRelationalopType@?CH@??chart_debug_initialization@@9@9 0000000180075be4     c451_modello_2017b_levaRetro_acc.obj
 0003:00001be8       ?sStartGuardMap@?CI@??chart_debug_initialization@@9@9 0000000180075be8     c451_modello_2017b_levaRetro_acc.obj
 0003:00001bec       ?sEndGuardMap@?CI@??chart_debug_initialization@@9@9 0000000180075bec     c451_modello_2017b_levaRetro_acc.obj
 0003:00001bf0       ?sStartRelationalopMap@?CJ@??chart_debug_initialization@@9@9 0000000180075bf0     c451_modello_2017b_levaRetro_acc.obj
 0003:00001bf4       ?sEndRelationalopMap@?CJ@??chart_debug_initialization@@9@9 0000000180075bf4     c451_modello_2017b_levaRetro_acc.obj
 0003:00001bf8       ?sRelationalopEps@?CJ@??chart_debug_initialization@@9@9 0000000180075bf8     c451_modello_2017b_levaRetro_acc.obj
 0003:00001bfc       ?sRelationalopType@?CJ@??chart_debug_initialization@@9@9 0000000180075bfc     c451_modello_2017b_levaRetro_acc.obj
 0003:00001c00       ?sStartGuardMap@?CK@??chart_debug_initialization@@9@9 0000000180075c00     c451_modello_2017b_levaRetro_acc.obj
 0003:00001c04       ?sEndGuardMap@?CK@??chart_debug_initialization@@9@9 0000000180075c04     c451_modello_2017b_levaRetro_acc.obj
 0003:00001c08       ?sStartRelationalopMap@?CL@??chart_debug_initialization@@9@9 0000000180075c08     c451_modello_2017b_levaRetro_acc.obj
 0003:00001c0c       ?sEndRelationalopMap@?CL@??chart_debug_initialization@@9@9 0000000180075c0c     c451_modello_2017b_levaRetro_acc.obj
 0003:00001c10       ?sRelationalopEps@?CL@??chart_debug_initialization@@9@9 0000000180075c10     c451_modello_2017b_levaRetro_acc.obj
 0003:00001c14       ?sRelationalopType@?CL@??chart_debug_initialization@@9@9 0000000180075c14     c451_modello_2017b_levaRetro_acc.obj
 0003:00001c18       ?sStartGuardMap@?CM@??chart_debug_initialization@@9@9 0000000180075c18     c451_modello_2017b_levaRetro_acc.obj
 0003:00001c1c       ?sEndGuardMap@?CM@??chart_debug_initialization@@9@9 0000000180075c1c     c451_modello_2017b_levaRetro_acc.obj
 0003:00001c20       ?sStartRelationalopMap@?CN@??chart_debug_initialization@@9@9 0000000180075c20     c451_modello_2017b_levaRetro_acc.obj
 0003:00001c24       ?sEndRelationalopMap@?CN@??chart_debug_initialization@@9@9 0000000180075c24     c451_modello_2017b_levaRetro_acc.obj
 0003:00001c28       ?sRelationalopEps@?CN@??chart_debug_initialization@@9@9 0000000180075c28     c451_modello_2017b_levaRetro_acc.obj
 0003:00001c2c       ?sRelationalopType@?CN@??chart_debug_initialization@@9@9 0000000180075c2c     c451_modello_2017b_levaRetro_acc.obj
 0003:00001c30       ?sStartGuardMap@?CO@??chart_debug_initialization@@9@9 0000000180075c30     c451_modello_2017b_levaRetro_acc.obj
 0003:00001c34       ?sEndGuardMap@?CO@??chart_debug_initialization@@9@9 0000000180075c34     c451_modello_2017b_levaRetro_acc.obj
 0003:00001c38       ?sStartRelationalopMap@?CP@??chart_debug_initialization@@9@9 0000000180075c38     c451_modello_2017b_levaRetro_acc.obj
 0003:00001c3c       ?sEndRelationalopMap@?CP@??chart_debug_initialization@@9@9 0000000180075c3c     c451_modello_2017b_levaRetro_acc.obj
 0003:00001c40       ?sRelationalopEps@?CP@??chart_debug_initialization@@9@9 0000000180075c40     c451_modello_2017b_levaRetro_acc.obj
 0003:00001c44       ?sRelationalopType@?CP@??chart_debug_initialization@@9@9 0000000180075c44     c451_modello_2017b_levaRetro_acc.obj
 0003:00001c48       ?sStartGuardMap@?DA@??chart_debug_initialization@@9@9 0000000180075c48     c451_modello_2017b_levaRetro_acc.obj
 0003:00001c50       ?sEndGuardMap@?DA@??chart_debug_initialization@@9@9 0000000180075c50     c451_modello_2017b_levaRetro_acc.obj
 0003:00001c58       ?sPostFixPredicateTree@?DA@??chart_debug_initialization@@9@9 0000000180075c58     c451_modello_2017b_levaRetro_acc.obj
 0003:00001c64       ?sStartGuardMap@?DC@??chart_debug_initialization@@9@9 0000000180075c64     c451_modello_2017b_levaRetro_acc.obj
 0003:00001c68       ?sStartRelationalopMap@?DB@??chart_debug_initialization@@9@9 0000000180075c68     c451_modello_2017b_levaRetro_acc.obj
 0003:00001c70       ?sEndRelationalopMap@?DB@??chart_debug_initialization@@9@9 0000000180075c70     c451_modello_2017b_levaRetro_acc.obj
 0003:00001c78       ?sRelationalopEps@?DB@??chart_debug_initialization@@9@9 0000000180075c78     c451_modello_2017b_levaRetro_acc.obj
 0003:00001c80       ?sRelationalopType@?DB@??chart_debug_initialization@@9@9 0000000180075c80     c451_modello_2017b_levaRetro_acc.obj
 0003:00001c88       ?sEndGuardMap@?DC@??chart_debug_initialization@@9@9 0000000180075c88     c451_modello_2017b_levaRetro_acc.obj
 0003:00001c8c       ?sStartRelationalopMap@?DD@??chart_debug_initialization@@9@9 0000000180075c8c     c451_modello_2017b_levaRetro_acc.obj
 0003:00001c90       ?sEndRelationalopMap@?DD@??chart_debug_initialization@@9@9 0000000180075c90     c451_modello_2017b_levaRetro_acc.obj
 0003:00001c94       ?sRelationalopEps@?DD@??chart_debug_initialization@@9@9 0000000180075c94     c451_modello_2017b_levaRetro_acc.obj
 0003:00001c98       ?sRelationalopType@?DD@??chart_debug_initialization@@9@9 0000000180075c98     c451_modello_2017b_levaRetro_acc.obj
 0003:00001c9c       ?sStartGuardMap@?DE@??chart_debug_initialization@@9@9 0000000180075c9c     c451_modello_2017b_levaRetro_acc.obj
 0003:00001ca0       ?sEndGuardMap@?DE@??chart_debug_initialization@@9@9 0000000180075ca0     c451_modello_2017b_levaRetro_acc.obj
 0003:00001ca4       ?sStartRelationalopMap@?DF@??chart_debug_initialization@@9@9 0000000180075ca4     c451_modello_2017b_levaRetro_acc.obj
 0003:00001ca8       ?sEndRelationalopMap@?DF@??chart_debug_initialization@@9@9 0000000180075ca8     c451_modello_2017b_levaRetro_acc.obj
 0003:00001cac       ?sRelationalopEps@?DF@??chart_debug_initialization@@9@9 0000000180075cac     c451_modello_2017b_levaRetro_acc.obj
 0003:00001cb0       ?sRelationalopType@?DF@??chart_debug_initialization@@9@9 0000000180075cb0     c451_modello_2017b_levaRetro_acc.obj
 0003:00001cb4       ?sStartGuardMap@?DG@??chart_debug_initialization@@9@9 0000000180075cb4     c451_modello_2017b_levaRetro_acc.obj
 0003:00001cb8       ?sEndGuardMap@?DG@??chart_debug_initialization@@9@9 0000000180075cb8     c451_modello_2017b_levaRetro_acc.obj
 0003:00001cbc       ?sStartRelationalopMap@?DH@??chart_debug_initialization@@9@9 0000000180075cbc     c451_modello_2017b_levaRetro_acc.obj
 0003:00001cc0       ?sEndRelationalopMap@?DH@??chart_debug_initialization@@9@9 0000000180075cc0     c451_modello_2017b_levaRetro_acc.obj
 0003:00001cc4       ?sRelationalopEps@?DH@??chart_debug_initialization@@9@9 0000000180075cc4     c451_modello_2017b_levaRetro_acc.obj
 0003:00001cc8       ?sRelationalopType@?DH@??chart_debug_initialization@@9@9 0000000180075cc8     c451_modello_2017b_levaRetro_acc.obj
 0003:00001ccc       ?sStartGuardMap@?DI@??chart_debug_initialization@@9@9 0000000180075ccc     c451_modello_2017b_levaRetro_acc.obj
 0003:00001cd0       ?sEndGuardMap@?DI@??chart_debug_initialization@@9@9 0000000180075cd0     c451_modello_2017b_levaRetro_acc.obj
 0003:00001cd4       ?sStartRelationalopMap@?DJ@??chart_debug_initialization@@9@9 0000000180075cd4     c451_modello_2017b_levaRetro_acc.obj
 0003:00001cd8       ?sEndRelationalopMap@?DJ@??chart_debug_initialization@@9@9 0000000180075cd8     c451_modello_2017b_levaRetro_acc.obj
 0003:00001cdc       ?sRelationalopEps@?DJ@??chart_debug_initialization@@9@9 0000000180075cdc     c451_modello_2017b_levaRetro_acc.obj
 0003:00001ce0       ?sRelationalopType@?DJ@??chart_debug_initialization@@9@9 0000000180075ce0     c451_modello_2017b_levaRetro_acc.obj
 0003:00001ce4       ?sStartGuardMap@?DK@??chart_debug_initialization@@9@9 0000000180075ce4     c451_modello_2017b_levaRetro_acc.obj
 0003:00001ce8       ?sEndGuardMap@?DK@??chart_debug_initialization@@9@9 0000000180075ce8     c451_modello_2017b_levaRetro_acc.obj
 0003:00001cec       ?sStartRelationalopMap@?DL@??chart_debug_initialization@@9@9 0000000180075cec     c451_modello_2017b_levaRetro_acc.obj
 0003:00001cf0       ?sEndRelationalopMap@?DL@??chart_debug_initialization@@9@9 0000000180075cf0     c451_modello_2017b_levaRetro_acc.obj
 0003:00001cf4       ?sRelationalopEps@?DL@??chart_debug_initialization@@9@9 0000000180075cf4     c451_modello_2017b_levaRetro_acc.obj
 0003:00001cf8       ?sRelationalopType@?DL@??chart_debug_initialization@@9@9 0000000180075cf8     c451_modello_2017b_levaRetro_acc.obj
 0003:00001cfc       ?sStartGuardMap@?DM@??chart_debug_initialization@@9@9 0000000180075cfc     c451_modello_2017b_levaRetro_acc.obj
 0003:00001d00       ?sEndGuardMap@?DM@??chart_debug_initialization@@9@9 0000000180075d00     c451_modello_2017b_levaRetro_acc.obj
 0003:00001d04       ?sStartRelationalopMap@?DN@??chart_debug_initialization@@9@9 0000000180075d04     c451_modello_2017b_levaRetro_acc.obj
 0003:00001d08       ?sEndRelationalopMap@?DN@??chart_debug_initialization@@9@9 0000000180075d08     c451_modello_2017b_levaRetro_acc.obj
 0003:00001d0c       ?sRelationalopEps@?DN@??chart_debug_initialization@@9@9 0000000180075d0c     c451_modello_2017b_levaRetro_acc.obj
 0003:00001d10       ?sRelationalopType@?DN@??chart_debug_initialization@@9@9 0000000180075d10     c451_modello_2017b_levaRetro_acc.obj
 0003:00001d14       ?sStartGuardMap@?EA@??chart_debug_initialization@@9@9 0000000180075d14     c451_modello_2017b_levaRetro_acc.obj
 0003:00001d18       ?sStartGuardMap@?DO@??chart_debug_initialization@@9@9 0000000180075d18     c451_modello_2017b_levaRetro_acc.obj
 0003:00001d20       ?sEndGuardMap@?DO@??chart_debug_initialization@@9@9 0000000180075d20     c451_modello_2017b_levaRetro_acc.obj
 0003:00001d28       ?sPostFixPredicateTree@?DO@??chart_debug_initialization@@9@9 0000000180075d28     c451_modello_2017b_levaRetro_acc.obj
 0003:00001d34       ?sEndGuardMap@?EA@??chart_debug_initialization@@9@9 0000000180075d34     c451_modello_2017b_levaRetro_acc.obj
 0003:00001d38       ?sStartRelationalopMap@?DP@??chart_debug_initialization@@9@9 0000000180075d38     c451_modello_2017b_levaRetro_acc.obj
 0003:00001d40       ?sEndRelationalopMap@?DP@??chart_debug_initialization@@9@9 0000000180075d40     c451_modello_2017b_levaRetro_acc.obj
 0003:00001d48       ?sRelationalopEps@?DP@??chart_debug_initialization@@9@9 0000000180075d48     c451_modello_2017b_levaRetro_acc.obj
 0003:00001d50       ?sRelationalopType@?DP@??chart_debug_initialization@@9@9 0000000180075d50     c451_modello_2017b_levaRetro_acc.obj
 0003:00001d58       ?sStartRelationalopMap@?EB@??chart_debug_initialization@@9@9 0000000180075d58     c451_modello_2017b_levaRetro_acc.obj
 0003:00001d5c       ?sEndRelationalopMap@?EB@??chart_debug_initialization@@9@9 0000000180075d5c     c451_modello_2017b_levaRetro_acc.obj
 0003:00001d60       ?sRelationalopEps@?EB@??chart_debug_initialization@@9@9 0000000180075d60     c451_modello_2017b_levaRetro_acc.obj
 0003:00001d64       ?sRelationalopType@?EB@??chart_debug_initialization@@9@9 0000000180075d64     c451_modello_2017b_levaRetro_acc.obj
 0003:00001d68       ?checksum@?1??sf_get_sfun_dwork_checksum@@9@9 0000000180075d68     c463_modello_2017b_levaRetro_acc.obj
 0003:00001d78       ?sStartGuardMap@?BG@??chart_debug_initialization@@9@9 0000000180075d78     c463_modello_2017b_levaRetro_acc.obj
 0003:00001d7c       ?sEndGuardMap@?BG@??chart_debug_initialization@@9@9 0000000180075d7c     c463_modello_2017b_levaRetro_acc.obj
 0003:00001d80       ?sStartRelationalopMap@?BH@??chart_debug_initialization@@9@9 0000000180075d80     c463_modello_2017b_levaRetro_acc.obj
 0003:00001d84       ?sEndRelationalopMap@?BH@??chart_debug_initialization@@9@9 0000000180075d84     c463_modello_2017b_levaRetro_acc.obj
 0003:00001d88       ?sRelationalopEps@?BH@??chart_debug_initialization@@9@9 0000000180075d88     c463_modello_2017b_levaRetro_acc.obj
 0003:00001d8c       ?sStartGuardMap@?BI@??chart_debug_initialization@@9@9 0000000180075d8c     c463_modello_2017b_levaRetro_acc.obj
 0003:00001d90       ?sEndGuardMap@?BI@??chart_debug_initialization@@9@9 0000000180075d90     c463_modello_2017b_levaRetro_acc.obj
 0003:00001d94       ?sStartRelationalopMap@?BJ@??chart_debug_initialization@@9@9 0000000180075d94     c463_modello_2017b_levaRetro_acc.obj
 0003:00001d98       ?sEndRelationalopMap@?BJ@??chart_debug_initialization@@9@9 0000000180075d98     c463_modello_2017b_levaRetro_acc.obj
 0003:00001d9c       ?sRelationalopEps@?BJ@??chart_debug_initialization@@9@9 0000000180075d9c     c463_modello_2017b_levaRetro_acc.obj
 0003:00001da0       ?sStartGuardMap@?BK@??chart_debug_initialization@@9@9 0000000180075da0     c463_modello_2017b_levaRetro_acc.obj
 0003:00001da8       ?sEndGuardMap@?BK@??chart_debug_initialization@@9@9 0000000180075da8     c463_modello_2017b_levaRetro_acc.obj
 0003:00001db0       ?sPostFixPredicateTree@?BK@??chart_debug_initialization@@9@9 0000000180075db0     c463_modello_2017b_levaRetro_acc.obj
 0003:00001dbc       ?sStartGuardMap@?BM@??chart_debug_initialization@@9@9 0000000180075dbc     c463_modello_2017b_levaRetro_acc.obj
 0003:00001dc0       ?sStartRelationalopMap@?BL@??chart_debug_initialization@@9@9 0000000180075dc0     c463_modello_2017b_levaRetro_acc.obj
 0003:00001dc8       ?sEndRelationalopMap@?BL@??chart_debug_initialization@@9@9 0000000180075dc8     c463_modello_2017b_levaRetro_acc.obj
 0003:00001dd0       ?sRelationalopEps@?BL@??chart_debug_initialization@@9@9 0000000180075dd0     c463_modello_2017b_levaRetro_acc.obj
 0003:00001dd8       ?sRelationalopType@?BL@??chart_debug_initialization@@9@9 0000000180075dd8     c463_modello_2017b_levaRetro_acc.obj
 0003:00001de0       ?sEndGuardMap@?BM@??chart_debug_initialization@@9@9 0000000180075de0     c463_modello_2017b_levaRetro_acc.obj
 0003:00001de4       ?sStartRelationalopMap@?BN@??chart_debug_initialization@@9@9 0000000180075de4     c463_modello_2017b_levaRetro_acc.obj
 0003:00001de8       ?sEndRelationalopMap@?BN@??chart_debug_initialization@@9@9 0000000180075de8     c463_modello_2017b_levaRetro_acc.obj
 0003:00001dec       ?sRelationalopEps@?BN@??chart_debug_initialization@@9@9 0000000180075dec     c463_modello_2017b_levaRetro_acc.obj
 0003:00001df0       ?sRelationalopType@?BN@??chart_debug_initialization@@9@9 0000000180075df0     c463_modello_2017b_levaRetro_acc.obj
 0003:00001df4       ?sStartGuardMap@?BO@??chart_debug_initialization@@9@9 0000000180075df4     c463_modello_2017b_levaRetro_acc.obj
 0003:00001df8       ?sEndGuardMap@?BO@??chart_debug_initialization@@9@9 0000000180075df8     c463_modello_2017b_levaRetro_acc.obj
 0003:00001dfc       ?sStartRelationalopMap@?BP@??chart_debug_initialization@@9@9 0000000180075dfc     c463_modello_2017b_levaRetro_acc.obj
 0003:00001e00       ?sEndRelationalopMap@?BP@??chart_debug_initialization@@9@9 0000000180075e00     c463_modello_2017b_levaRetro_acc.obj
 0003:00001e04       ?sRelationalopEps@?BP@??chart_debug_initialization@@9@9 0000000180075e04     c463_modello_2017b_levaRetro_acc.obj
 0003:00001e08       ?sRelationalopType@?BP@??chart_debug_initialization@@9@9 0000000180075e08     c463_modello_2017b_levaRetro_acc.obj
 0003:00001e0c       ?sStartGuardMap@?CA@??chart_debug_initialization@@9@9 0000000180075e0c     c463_modello_2017b_levaRetro_acc.obj
 0003:00001e10       ?sEndGuardMap@?CA@??chart_debug_initialization@@9@9 0000000180075e10     c463_modello_2017b_levaRetro_acc.obj
 0003:00001e14       ?sStartRelationalopMap@?CB@??chart_debug_initialization@@9@9 0000000180075e14     c463_modello_2017b_levaRetro_acc.obj
 0003:00001e18       ?sEndRelationalopMap@?CB@??chart_debug_initialization@@9@9 0000000180075e18     c463_modello_2017b_levaRetro_acc.obj
 0003:00001e1c       ?sRelationalopEps@?CB@??chart_debug_initialization@@9@9 0000000180075e1c     c463_modello_2017b_levaRetro_acc.obj
 0003:00001e20       ?sRelationalopType@?CB@??chart_debug_initialization@@9@9 0000000180075e20     c463_modello_2017b_levaRetro_acc.obj
 0003:00001e24       ?sStartGuardMap@?CC@??chart_debug_initialization@@9@9 0000000180075e24     c463_modello_2017b_levaRetro_acc.obj
 0003:00001e28       ?sEndGuardMap@?CC@??chart_debug_initialization@@9@9 0000000180075e28     c463_modello_2017b_levaRetro_acc.obj
 0003:00001e2c       ?sStartRelationalopMap@?CD@??chart_debug_initialization@@9@9 0000000180075e2c     c463_modello_2017b_levaRetro_acc.obj
 0003:00001e30       ?sEndRelationalopMap@?CD@??chart_debug_initialization@@9@9 0000000180075e30     c463_modello_2017b_levaRetro_acc.obj
 0003:00001e34       ?sRelationalopEps@?CD@??chart_debug_initialization@@9@9 0000000180075e34     c463_modello_2017b_levaRetro_acc.obj
 0003:00001e38       ?sRelationalopType@?CD@??chart_debug_initialization@@9@9 0000000180075e38     c463_modello_2017b_levaRetro_acc.obj
 0003:00001e3c       ?sStartGuardMap@?CG@??chart_debug_initialization@@9@9 0000000180075e3c     c463_modello_2017b_levaRetro_acc.obj
 0003:00001e40       ?sStartGuardMap@?CE@??chart_debug_initialization@@9@9 0000000180075e40     c463_modello_2017b_levaRetro_acc.obj
 0003:00001e48       ?sEndGuardMap@?CE@??chart_debug_initialization@@9@9 0000000180075e48     c463_modello_2017b_levaRetro_acc.obj
 0003:00001e50       ?sPostFixPredicateTree@?CE@??chart_debug_initialization@@9@9 0000000180075e50     c463_modello_2017b_levaRetro_acc.obj
 0003:00001e5c       ?sEndGuardMap@?CG@??chart_debug_initialization@@9@9 0000000180075e5c     c463_modello_2017b_levaRetro_acc.obj
 0003:00001e60       ?sStartRelationalopMap@?CF@??chart_debug_initialization@@9@9 0000000180075e60     c463_modello_2017b_levaRetro_acc.obj
 0003:00001e68       ?sEndRelationalopMap@?CF@??chart_debug_initialization@@9@9 0000000180075e68     c463_modello_2017b_levaRetro_acc.obj
 0003:00001e70       ?sRelationalopEps@?CF@??chart_debug_initialization@@9@9 0000000180075e70     c463_modello_2017b_levaRetro_acc.obj
 0003:00001e78       ?sRelationalopType@?CF@??chart_debug_initialization@@9@9 0000000180075e78     c463_modello_2017b_levaRetro_acc.obj
 0003:00001e80       ?sStartRelationalopMap@?CH@??chart_debug_initialization@@9@9 0000000180075e80     c463_modello_2017b_levaRetro_acc.obj
 0003:00001e84       ?sEndRelationalopMap@?CH@??chart_debug_initialization@@9@9 0000000180075e84     c463_modello_2017b_levaRetro_acc.obj
 0003:00001e88       ?sRelationalopEps@?CH@??chart_debug_initialization@@9@9 0000000180075e88     c463_modello_2017b_levaRetro_acc.obj
 0003:00001e8c       ?sRelationalopType@?CH@??chart_debug_initialization@@9@9 0000000180075e8c     c463_modello_2017b_levaRetro_acc.obj
 0003:00001e90       ?sStartGuardMap@?CI@??chart_debug_initialization@@9@9 0000000180075e90     c463_modello_2017b_levaRetro_acc.obj
 0003:00001e94       ?sEndGuardMap@?CI@??chart_debug_initialization@@9@9 0000000180075e94     c463_modello_2017b_levaRetro_acc.obj
 0003:00001e98       ?sStartRelationalopMap@?CJ@??chart_debug_initialization@@9@9 0000000180075e98     c463_modello_2017b_levaRetro_acc.obj
 0003:00001e9c       ?sEndRelationalopMap@?CJ@??chart_debug_initialization@@9@9 0000000180075e9c     c463_modello_2017b_levaRetro_acc.obj
 0003:00001ea0       ?sRelationalopEps@?CJ@??chart_debug_initialization@@9@9 0000000180075ea0     c463_modello_2017b_levaRetro_acc.obj
 0003:00001ea4       ?sRelationalopType@?CJ@??chart_debug_initialization@@9@9 0000000180075ea4     c463_modello_2017b_levaRetro_acc.obj
 0003:00001ea8       ?sStartGuardMap@?CK@??chart_debug_initialization@@9@9 0000000180075ea8     c463_modello_2017b_levaRetro_acc.obj
 0003:00001eac       ?sEndGuardMap@?CK@??chart_debug_initialization@@9@9 0000000180075eac     c463_modello_2017b_levaRetro_acc.obj
 0003:00001eb0       ?sStartRelationalopMap@?CL@??chart_debug_initialization@@9@9 0000000180075eb0     c463_modello_2017b_levaRetro_acc.obj
 0003:00001eb4       ?sEndRelationalopMap@?CL@??chart_debug_initialization@@9@9 0000000180075eb4     c463_modello_2017b_levaRetro_acc.obj
 0003:00001eb8       ?sRelationalopEps@?CL@??chart_debug_initialization@@9@9 0000000180075eb8     c463_modello_2017b_levaRetro_acc.obj
 0003:00001ebc       ?sRelationalopType@?CL@??chart_debug_initialization@@9@9 0000000180075ebc     c463_modello_2017b_levaRetro_acc.obj
 0003:00001ec0       ?sStartGuardMap@?CM@??chart_debug_initialization@@9@9 0000000180075ec0     c463_modello_2017b_levaRetro_acc.obj
 0003:00001ec4       ?sEndGuardMap@?CM@??chart_debug_initialization@@9@9 0000000180075ec4     c463_modello_2017b_levaRetro_acc.obj
 0003:00001ec8       ?sStartRelationalopMap@?CN@??chart_debug_initialization@@9@9 0000000180075ec8     c463_modello_2017b_levaRetro_acc.obj
 0003:00001ecc       ?sEndRelationalopMap@?CN@??chart_debug_initialization@@9@9 0000000180075ecc     c463_modello_2017b_levaRetro_acc.obj
 0003:00001ed0       ?sRelationalopEps@?CN@??chart_debug_initialization@@9@9 0000000180075ed0     c463_modello_2017b_levaRetro_acc.obj
 0003:00001ed4       ?sRelationalopType@?CN@??chart_debug_initialization@@9@9 0000000180075ed4     c463_modello_2017b_levaRetro_acc.obj
 0003:00001ed8       ?sStartGuardMap@?CO@??chart_debug_initialization@@9@9 0000000180075ed8     c463_modello_2017b_levaRetro_acc.obj
 0003:00001edc       ?sEndGuardMap@?CO@??chart_debug_initialization@@9@9 0000000180075edc     c463_modello_2017b_levaRetro_acc.obj
 0003:00001ee0       ?sStartRelationalopMap@?CP@??chart_debug_initialization@@9@9 0000000180075ee0     c463_modello_2017b_levaRetro_acc.obj
 0003:00001ee4       ?sEndRelationalopMap@?CP@??chart_debug_initialization@@9@9 0000000180075ee4     c463_modello_2017b_levaRetro_acc.obj
 0003:00001ee8       ?sRelationalopEps@?CP@??chart_debug_initialization@@9@9 0000000180075ee8     c463_modello_2017b_levaRetro_acc.obj
 0003:00001eec       ?sRelationalopType@?CP@??chart_debug_initialization@@9@9 0000000180075eec     c463_modello_2017b_levaRetro_acc.obj
 0003:00001ef0       ?sStartGuardMap@?DA@??chart_debug_initialization@@9@9 0000000180075ef0     c463_modello_2017b_levaRetro_acc.obj
 0003:00001ef8       ?sEndGuardMap@?DA@??chart_debug_initialization@@9@9 0000000180075ef8     c463_modello_2017b_levaRetro_acc.obj
 0003:00001f00       ?sPostFixPredicateTree@?DA@??chart_debug_initialization@@9@9 0000000180075f00     c463_modello_2017b_levaRetro_acc.obj
 0003:00001f0c       ?sStartGuardMap@?DC@??chart_debug_initialization@@9@9 0000000180075f0c     c463_modello_2017b_levaRetro_acc.obj
 0003:00001f10       ?sStartRelationalopMap@?DB@??chart_debug_initialization@@9@9 0000000180075f10     c463_modello_2017b_levaRetro_acc.obj
 0003:00001f18       ?sEndRelationalopMap@?DB@??chart_debug_initialization@@9@9 0000000180075f18     c463_modello_2017b_levaRetro_acc.obj
 0003:00001f20       ?sRelationalopEps@?DB@??chart_debug_initialization@@9@9 0000000180075f20     c463_modello_2017b_levaRetro_acc.obj
 0003:00001f28       ?sRelationalopType@?DB@??chart_debug_initialization@@9@9 0000000180075f28     c463_modello_2017b_levaRetro_acc.obj
 0003:00001f30       ?sEndGuardMap@?DC@??chart_debug_initialization@@9@9 0000000180075f30     c463_modello_2017b_levaRetro_acc.obj
 0003:00001f34       ?sStartRelationalopMap@?DD@??chart_debug_initialization@@9@9 0000000180075f34     c463_modello_2017b_levaRetro_acc.obj
 0003:00001f38       ?sEndRelationalopMap@?DD@??chart_debug_initialization@@9@9 0000000180075f38     c463_modello_2017b_levaRetro_acc.obj
 0003:00001f3c       ?sRelationalopEps@?DD@??chart_debug_initialization@@9@9 0000000180075f3c     c463_modello_2017b_levaRetro_acc.obj
 0003:00001f40       ?sRelationalopType@?DD@??chart_debug_initialization@@9@9 0000000180075f40     c463_modello_2017b_levaRetro_acc.obj
 0003:00001f44       ?sStartGuardMap@?DE@??chart_debug_initialization@@9@9 0000000180075f44     c463_modello_2017b_levaRetro_acc.obj
 0003:00001f48       ?sEndGuardMap@?DE@??chart_debug_initialization@@9@9 0000000180075f48     c463_modello_2017b_levaRetro_acc.obj
 0003:00001f4c       ?sStartRelationalopMap@?DF@??chart_debug_initialization@@9@9 0000000180075f4c     c463_modello_2017b_levaRetro_acc.obj
 0003:00001f50       ?sEndRelationalopMap@?DF@??chart_debug_initialization@@9@9 0000000180075f50     c463_modello_2017b_levaRetro_acc.obj
 0003:00001f54       ?sRelationalopEps@?DF@??chart_debug_initialization@@9@9 0000000180075f54     c463_modello_2017b_levaRetro_acc.obj
 0003:00001f58       ?sRelationalopType@?DF@??chart_debug_initialization@@9@9 0000000180075f58     c463_modello_2017b_levaRetro_acc.obj
 0003:00001f5c       ?sStartGuardMap@?DG@??chart_debug_initialization@@9@9 0000000180075f5c     c463_modello_2017b_levaRetro_acc.obj
 0003:00001f60       ?sEndGuardMap@?DG@??chart_debug_initialization@@9@9 0000000180075f60     c463_modello_2017b_levaRetro_acc.obj
 0003:00001f64       ?sStartRelationalopMap@?DH@??chart_debug_initialization@@9@9 0000000180075f64     c463_modello_2017b_levaRetro_acc.obj
 0003:00001f68       ?sEndRelationalopMap@?DH@??chart_debug_initialization@@9@9 0000000180075f68     c463_modello_2017b_levaRetro_acc.obj
 0003:00001f6c       ?sRelationalopEps@?DH@??chart_debug_initialization@@9@9 0000000180075f6c     c463_modello_2017b_levaRetro_acc.obj
 0003:00001f70       ?sRelationalopType@?DH@??chart_debug_initialization@@9@9 0000000180075f70     c463_modello_2017b_levaRetro_acc.obj
 0003:00001f74       ?sStartGuardMap@?DI@??chart_debug_initialization@@9@9 0000000180075f74     c463_modello_2017b_levaRetro_acc.obj
 0003:00001f78       ?sEndGuardMap@?DI@??chart_debug_initialization@@9@9 0000000180075f78     c463_modello_2017b_levaRetro_acc.obj
 0003:00001f7c       ?sStartRelationalopMap@?DJ@??chart_debug_initialization@@9@9 0000000180075f7c     c463_modello_2017b_levaRetro_acc.obj
 0003:00001f80       ?sEndRelationalopMap@?DJ@??chart_debug_initialization@@9@9 0000000180075f80     c463_modello_2017b_levaRetro_acc.obj
 0003:00001f84       ?sRelationalopEps@?DJ@??chart_debug_initialization@@9@9 0000000180075f84     c463_modello_2017b_levaRetro_acc.obj
 0003:00001f88       ?sRelationalopType@?DJ@??chart_debug_initialization@@9@9 0000000180075f88     c463_modello_2017b_levaRetro_acc.obj
 0003:00001f8c       ?sStartGuardMap@?DK@??chart_debug_initialization@@9@9 0000000180075f8c     c463_modello_2017b_levaRetro_acc.obj
 0003:00001f90       ?sEndGuardMap@?DK@??chart_debug_initialization@@9@9 0000000180075f90     c463_modello_2017b_levaRetro_acc.obj
 0003:00001f94       ?sStartRelationalopMap@?DL@??chart_debug_initialization@@9@9 0000000180075f94     c463_modello_2017b_levaRetro_acc.obj
 0003:00001f98       ?sEndRelationalopMap@?DL@??chart_debug_initialization@@9@9 0000000180075f98     c463_modello_2017b_levaRetro_acc.obj
 0003:00001f9c       ?sRelationalopEps@?DL@??chart_debug_initialization@@9@9 0000000180075f9c     c463_modello_2017b_levaRetro_acc.obj
 0003:00001fa0       ?sRelationalopType@?DL@??chart_debug_initialization@@9@9 0000000180075fa0     c463_modello_2017b_levaRetro_acc.obj
 0003:00001fa4       ?sStartGuardMap@?DM@??chart_debug_initialization@@9@9 0000000180075fa4     c463_modello_2017b_levaRetro_acc.obj
 0003:00001fa8       ?sEndGuardMap@?DM@??chart_debug_initialization@@9@9 0000000180075fa8     c463_modello_2017b_levaRetro_acc.obj
 0003:00001fac       ?sStartRelationalopMap@?DN@??chart_debug_initialization@@9@9 0000000180075fac     c463_modello_2017b_levaRetro_acc.obj
 0003:00001fb0       ?sEndRelationalopMap@?DN@??chart_debug_initialization@@9@9 0000000180075fb0     c463_modello_2017b_levaRetro_acc.obj
 0003:00001fb4       ?sRelationalopEps@?DN@??chart_debug_initialization@@9@9 0000000180075fb4     c463_modello_2017b_levaRetro_acc.obj
 0003:00001fb8       ?sRelationalopType@?DN@??chart_debug_initialization@@9@9 0000000180075fb8     c463_modello_2017b_levaRetro_acc.obj
 0003:00001fbc       ?sStartGuardMap@?DO@??chart_debug_initialization@@9@9 0000000180075fbc     c463_modello_2017b_levaRetro_acc.obj
 0003:00001fc0       ?sEndGuardMap@?DO@??chart_debug_initialization@@9@9 0000000180075fc0     c463_modello_2017b_levaRetro_acc.obj
 0003:00001fc4       ?sStartRelationalopMap@?DP@??chart_debug_initialization@@9@9 0000000180075fc4     c463_modello_2017b_levaRetro_acc.obj
 0003:00001fc8       ?sEndRelationalopMap@?DP@??chart_debug_initialization@@9@9 0000000180075fc8     c463_modello_2017b_levaRetro_acc.obj
 0003:00001fcc       ?sRelationalopEps@?DP@??chart_debug_initialization@@9@9 0000000180075fcc     c463_modello_2017b_levaRetro_acc.obj
 0003:00001fd0       ?sRelationalopType@?DP@??chart_debug_initialization@@9@9 0000000180075fd0     c463_modello_2017b_levaRetro_acc.obj
 0003:00001fd8       ?sStartGuardMap@?EA@??chart_debug_initialization@@9@9 0000000180075fd8     c463_modello_2017b_levaRetro_acc.obj
 0003:00001fe0       ?sEndGuardMap@?EA@??chart_debug_initialization@@9@9 0000000180075fe0     c463_modello_2017b_levaRetro_acc.obj
 0003:00001fe8       ?sPostFixPredicateTree@?EA@??chart_debug_initialization@@9@9 0000000180075fe8     c463_modello_2017b_levaRetro_acc.obj
 0003:00001ff8       ?sStartRelationalopMap@?EB@??chart_debug_initialization@@9@9 0000000180075ff8     c463_modello_2017b_levaRetro_acc.obj
 0003:00002000       ?sEndRelationalopMap@?EB@??chart_debug_initialization@@9@9 0000000180076000     c463_modello_2017b_levaRetro_acc.obj
 0003:00002008       ?sRelationalopEps@?EB@??chart_debug_initialization@@9@9 0000000180076008     c463_modello_2017b_levaRetro_acc.obj
 0003:00002010       ?sRelationalopType@?EB@??chart_debug_initialization@@9@9 0000000180076010     c463_modello_2017b_levaRetro_acc.obj
 0003:00002020       _sfcnName                  0000000180076020     modello_2017b_levaRetro_acc_sfun_registry.obj
 0003:00002080       sRtwOptimizationInfoStruct 0000000180076080     modello_2017b_levaRetro_acc_sfun.obj
 0003:00002088       sOptimizationInfoFlags     0000000180076088     modello_2017b_levaRetro_acc_sfun.obj
 0003:00002090       _sfTime_                   0000000180076090     c1_modello_2017b_levaRetro_acc.obj
 0003:00002098       _sfTime_                   0000000180076098     c2_modello_2017b_levaRetro_acc.obj
 0003:000020a0       _sfTime_                   00000001800760a0     c3_modello_2017b_levaRetro_acc.obj
 0003:000020a8       _sfTime_                   00000001800760a8     c27_modello_2017b_levaRetro_acc.obj
 0003:000020b0       ?sPostFixPredicateTree@?BB@??chart_debug_initialization@@9@9 00000001800760b0     c52_modello_2017b_levaRetro_acc.obj
 0003:000020b4       ?sRelationalopType@?BC@??chart_debug_initialization@@9@9 00000001800760b4     c52_modello_2017b_levaRetro_acc.obj
 0003:000020b8       ?sPostFixPredicateTree@?BF@??chart_debug_initialization@@9@9 00000001800760b8     c52_modello_2017b_levaRetro_acc.obj
 0003:000020bc       ?sRelationalopType@?BG@??chart_debug_initialization@@9@9 00000001800760bc     c52_modello_2017b_levaRetro_acc.obj
 0003:000020c0       ?sPostFixPredicateTree@?BL@??chart_debug_initialization@@9@9 00000001800760c0     c52_modello_2017b_levaRetro_acc.obj
 0003:000020c4       ?sRelationalopType@?BM@??chart_debug_initialization@@9@9 00000001800760c4     c52_modello_2017b_levaRetro_acc.obj
 0003:000020c8       ?sPostFixPredicateTree@?CD@??chart_debug_initialization@@9@9 00000001800760c8     c52_modello_2017b_levaRetro_acc.obj
 0003:000020cc       ?sRelationalopType@?CE@??chart_debug_initialization@@9@9 00000001800760cc     c52_modello_2017b_levaRetro_acc.obj
 0003:000020d0       _sfTime_                   00000001800760d0     c52_modello_2017b_levaRetro_acc.obj
 0003:000020d8       ?sPostFixPredicateTree@?BE@??chart_debug_initialization@@9@9 00000001800760d8     c152_modello_2017b_levaRetro_acc.obj
 0003:000020dc       ?sRelationalopType@?BF@??chart_debug_initialization@@9@9 00000001800760dc     c152_modello_2017b_levaRetro_acc.obj
 0003:000020e0       ?sPostFixPredicateTree@?BI@??chart_debug_initialization@@9@9 00000001800760e0     c152_modello_2017b_levaRetro_acc.obj
 0003:000020e4       ?sRelationalopType@?BJ@??chart_debug_initialization@@9@9 00000001800760e4     c152_modello_2017b_levaRetro_acc.obj
 0003:000020e8       ?sPostFixPredicateTree@?BO@??chart_debug_initialization@@9@9 00000001800760e8     c152_modello_2017b_levaRetro_acc.obj
 0003:000020ec       ?sRelationalopType@?BP@??chart_debug_initialization@@9@9 00000001800760ec     c152_modello_2017b_levaRetro_acc.obj
 0003:000020f0       ?sPostFixPredicateTree@?CG@??chart_debug_initialization@@9@9 00000001800760f0     c152_modello_2017b_levaRetro_acc.obj
 0003:000020f4       ?sRelationalopType@?CH@??chart_debug_initialization@@9@9 00000001800760f4     c152_modello_2017b_levaRetro_acc.obj
 0003:000020f8       ?sPostFixPredicateTree@?DG@??chart_debug_initialization@@9@9 00000001800760f8     c152_modello_2017b_levaRetro_acc.obj
 0003:000020fc       ?sPostFixPredicateTree@?DK@??chart_debug_initialization@@9@9 00000001800760fc     c152_modello_2017b_levaRetro_acc.obj
 0003:00002100       ?sRelationalopType@?DJ@??chart_debug_initialization@@9@9 0000000180076100     c152_modello_2017b_levaRetro_acc.obj
 0003:00002108       ?sRelationalopType@?DL@??chart_debug_initialization@@9@9 0000000180076108     c152_modello_2017b_levaRetro_acc.obj
 0003:0000210c       ?sPostFixPredicateTree@?DO@??chart_debug_initialization@@9@9 000000018007610c     c152_modello_2017b_levaRetro_acc.obj
 0003:00002110       ?sRelationalopType@?DN@??chart_debug_initialization@@9@9 0000000180076110     c152_modello_2017b_levaRetro_acc.obj
 0003:00002118       ?sRelationalopType@?DP@??chart_debug_initialization@@9@9 0000000180076118     c152_modello_2017b_levaRetro_acc.obj
 0003:0000211c       ?sPostFixPredicateTree@?EC@??chart_debug_initialization@@9@9 000000018007611c     c152_modello_2017b_levaRetro_acc.obj
 0003:00002120       ?sPostFixPredicateTree@?EE@??chart_debug_initialization@@9@9 0000000180076120     c152_modello_2017b_levaRetro_acc.obj
 0003:00002128       _sfTime_                   0000000180076128     c152_modello_2017b_levaRetro_acc.obj
 0003:00002130       ?sPostFixPredicateTree@?BG@??chart_debug_initialization@@9@9 0000000180076130     c451_modello_2017b_levaRetro_acc.obj
 0003:00002134       ?sRelationalopType@?BH@??chart_debug_initialization@@9@9 0000000180076134     c451_modello_2017b_levaRetro_acc.obj
 0003:00002138       ?sPostFixPredicateTree@?BI@??chart_debug_initialization@@9@9 0000000180076138     c451_modello_2017b_levaRetro_acc.obj
 0003:0000213c       ?sRelationalopType@?BJ@??chart_debug_initialization@@9@9 000000018007613c     c451_modello_2017b_levaRetro_acc.obj
 0003:00002140       ?sPostFixPredicateTree@?BM@??chart_debug_initialization@@9@9 0000000180076140     c451_modello_2017b_levaRetro_acc.obj
 0003:00002144       ?sPostFixPredicateTree@?BO@??chart_debug_initialization@@9@9 0000000180076144     c451_modello_2017b_levaRetro_acc.obj
 0003:00002148       ?sPostFixPredicateTree@?CA@??chart_debug_initialization@@9@9 0000000180076148     c451_modello_2017b_levaRetro_acc.obj
 0003:0000214c       ?sPostFixPredicateTree@?CC@??chart_debug_initialization@@9@9 000000018007614c     c451_modello_2017b_levaRetro_acc.obj
 0003:00002150       ?sPostFixPredicateTree@?CG@??chart_debug_initialization@@9@9 0000000180076150     c451_modello_2017b_levaRetro_acc.obj
 0003:00002154       ?sPostFixPredicateTree@?CI@??chart_debug_initialization@@9@9 0000000180076154     c451_modello_2017b_levaRetro_acc.obj
 0003:00002158       ?sPostFixPredicateTree@?CK@??chart_debug_initialization@@9@9 0000000180076158     c451_modello_2017b_levaRetro_acc.obj
 0003:0000215c       ?sPostFixPredicateTree@?CM@??chart_debug_initialization@@9@9 000000018007615c     c451_modello_2017b_levaRetro_acc.obj
 0003:00002160       ?sPostFixPredicateTree@?CO@??chart_debug_initialization@@9@9 0000000180076160     c451_modello_2017b_levaRetro_acc.obj
 0003:00002164       ?sPostFixPredicateTree@?DC@??chart_debug_initialization@@9@9 0000000180076164     c451_modello_2017b_levaRetro_acc.obj
 0003:00002168       ?sPostFixPredicateTree@?DE@??chart_debug_initialization@@9@9 0000000180076168     c451_modello_2017b_levaRetro_acc.obj
 0003:0000216c       ?sPostFixPredicateTree@?DG@??chart_debug_initialization@@9@9 000000018007616c     c451_modello_2017b_levaRetro_acc.obj
 0003:00002170       ?sPostFixPredicateTree@?DI@??chart_debug_initialization@@9@9 0000000180076170     c451_modello_2017b_levaRetro_acc.obj
 0003:00002174       ?sPostFixPredicateTree@?DK@??chart_debug_initialization@@9@9 0000000180076174     c451_modello_2017b_levaRetro_acc.obj
 0003:00002178       ?sPostFixPredicateTree@?DM@??chart_debug_initialization@@9@9 0000000180076178     c451_modello_2017b_levaRetro_acc.obj
 0003:0000217c       ?sPostFixPredicateTree@?EA@??chart_debug_initialization@@9@9 000000018007617c     c451_modello_2017b_levaRetro_acc.obj
 0003:00002180       _sfTime_                   0000000180076180     c451_modello_2017b_levaRetro_acc.obj
 0003:00002188       ?sPostFixPredicateTree@?BG@??chart_debug_initialization@@9@9 0000000180076188     c463_modello_2017b_levaRetro_acc.obj
 0003:0000218c       ?sRelationalopType@?BH@??chart_debug_initialization@@9@9 000000018007618c     c463_modello_2017b_levaRetro_acc.obj
 0003:00002190       ?sPostFixPredicateTree@?BI@??chart_debug_initialization@@9@9 0000000180076190     c463_modello_2017b_levaRetro_acc.obj
 0003:00002194       ?sRelationalopType@?BJ@??chart_debug_initialization@@9@9 0000000180076194     c463_modello_2017b_levaRetro_acc.obj
 0003:00002198       ?sPostFixPredicateTree@?BM@??chart_debug_initialization@@9@9 0000000180076198     c463_modello_2017b_levaRetro_acc.obj
 0003:0000219c       ?sPostFixPredicateTree@?BO@??chart_debug_initialization@@9@9 000000018007619c     c463_modello_2017b_levaRetro_acc.obj
 0003:000021a0       ?sPostFixPredicateTree@?CA@??chart_debug_initialization@@9@9 00000001800761a0     c463_modello_2017b_levaRetro_acc.obj
 0003:000021a4       ?sPostFixPredicateTree@?CC@??chart_debug_initialization@@9@9 00000001800761a4     c463_modello_2017b_levaRetro_acc.obj
 0003:000021a8       ?sPostFixPredicateTree@?CG@??chart_debug_initialization@@9@9 00000001800761a8     c463_modello_2017b_levaRetro_acc.obj
 0003:000021ac       ?sPostFixPredicateTree@?CI@??chart_debug_initialization@@9@9 00000001800761ac     c463_modello_2017b_levaRetro_acc.obj
 0003:000021b0       ?sPostFixPredicateTree@?CK@??chart_debug_initialization@@9@9 00000001800761b0     c463_modello_2017b_levaRetro_acc.obj
 0003:000021b4       ?sPostFixPredicateTree@?CM@??chart_debug_initialization@@9@9 00000001800761b4     c463_modello_2017b_levaRetro_acc.obj
 0003:000021b8       ?sPostFixPredicateTree@?CO@??chart_debug_initialization@@9@9 00000001800761b8     c463_modello_2017b_levaRetro_acc.obj
 0003:000021bc       ?sPostFixPredicateTree@?DC@??chart_debug_initialization@@9@9 00000001800761bc     c463_modello_2017b_levaRetro_acc.obj
 0003:000021c0       ?sPostFixPredicateTree@?DE@??chart_debug_initialization@@9@9 00000001800761c0     c463_modello_2017b_levaRetro_acc.obj
 0003:000021c4       ?sPostFixPredicateTree@?DG@??chart_debug_initialization@@9@9 00000001800761c4     c463_modello_2017b_levaRetro_acc.obj
 0003:000021c8       ?sPostFixPredicateTree@?DI@??chart_debug_initialization@@9@9 00000001800761c8     c463_modello_2017b_levaRetro_acc.obj
 0003:000021cc       ?sPostFixPredicateTree@?DK@??chart_debug_initialization@@9@9 00000001800761cc     c463_modello_2017b_levaRetro_acc.obj
 0003:000021d0       ?sPostFixPredicateTree@?DM@??chart_debug_initialization@@9@9 00000001800761d0     c463_modello_2017b_levaRetro_acc.obj
 0003:000021d4       ?sPostFixPredicateTree@?DO@??chart_debug_initialization@@9@9 00000001800761d4     c463_modello_2017b_levaRetro_acc.obj
 0003:000021d8       _sfTime_                   00000001800761d8     c463_modello_2017b_levaRetro_acc.obj
 0003:000021e8       sfGlobalMdlStartCallCounts 00000001800761e8     modello_2017b_levaRetro_acc_sfun_registry.obj
 0003:000021f0       ?msg@?3??ReportIndexOutOfBoundsError@@9@9 00000001800761f0     modello_2017b_levaRetro_acc_sfun_registry.obj
 0003:000031f0       ?__proc_attached@@3HA      00000001800771f0     MSVCRT:dll_dllmain.obj
 0003:00003200       GS_ExceptionRecord         0000000180077200     MSVCRT:gs_report.obj
 0003:000032a0       GS_ContextRecord           00000001800772a0     MSVCRT:gs_report.obj
 0003:00003780       ?module_local_atexit_table@@3U_onexit_table_t@@A 0000000180077780     MSVCRT:utility.obj
 0003:00003798       ?module_local_at_quick_exit_table@@3U_onexit_table_t@@A 0000000180077798     MSVCRT:utility.obj
 0003:000037b0       ?is_initialized_as_dll@@3_NA 00000001800777b0     MSVCRT:utility.obj
 0004:00000000       $pdata$load_modello_2017b_levaRetro_acc_optimization_info 0000000180078000     modello_2017b_levaRetro_acc_sfun.obj
 0004:0000000c       $pdata$modello_2017b_levaRetro_acc_debug_initialize 000000018007800c     modello_2017b_levaRetro_acc_sfun.obj
 0004:00000018       $pdata$sf_modello_2017b_levaRetro_acc_autoinheritance_info 0000000180078018     modello_2017b_levaRetro_acc_sfun.obj
 0004:00000024       $pdata$sf_modello_2017b_levaRetro_acc_get_eml_resolved_functions_info 0000000180078024     modello_2017b_levaRetro_acc_sfun.obj
 0004:00000030       $pdata$sf_modello_2017b_levaRetro_acc_jit_fallback_info 0000000180078030     modello_2017b_levaRetro_acc_sfun.obj
 0004:0000003c       $pdata$sf_modello_2017b_levaRetro_acc_method_dispatcher 000000018007803c     modello_2017b_levaRetro_acc_sfun.obj
 0004:00000048       $pdata$sf_modello_2017b_levaRetro_acc_process_check_sum_call 0000000180078048     modello_2017b_levaRetro_acc_sfun.obj
 0004:00000054       $pdata$0$sf_modello_2017b_levaRetro_acc_process_check_sum_call 0000000180078054     modello_2017b_levaRetro_acc_sfun.obj
 0004:00000060       $pdata$1$sf_modello_2017b_levaRetro_acc_process_check_sum_call 0000000180078060     modello_2017b_levaRetro_acc_sfun.obj
 0004:0000006c       $pdata$sf_modello_2017b_levaRetro_acc_process_testpoint_info_call 000000018007806c     modello_2017b_levaRetro_acc_sfun.obj
 0004:00000078       $pdata$sf_modello_2017b_levaRetro_acc_third_party_uses_info 0000000180078078     modello_2017b_levaRetro_acc_sfun.obj
 0004:00000084       $pdata$sf_modello_2017b_levaRetro_acc_updateBuildInfo_args_info 0000000180078084     modello_2017b_levaRetro_acc_sfun.obj
 0004:00000090       $pdata$unload_modello_2017b_levaRetro_acc_optimization_info 0000000180078090     modello_2017b_levaRetro_acc_sfun.obj
 0004:0000009c       $pdata$c1_DS402StateMachine 000000018007809c     c1_modello_2017b_levaRetro_acc.obj
 0004:000000a8       $pdata$c1_b_emlrt_marshallIn 00000001800780a8     c1_modello_2017b_levaRetro_acc.obj
 0004:000000b4       $pdata$c1_b_sf_marshallIn  00000001800780b4     c1_modello_2017b_levaRetro_acc.obj
 0004:000000c0       $pdata$c1_b_sf_marshallOut 00000001800780c0     c1_modello_2017b_levaRetro_acc.obj
 0004:000000cc       $pdata$c1_c_emlrt_marshallIn 00000001800780cc     c1_modello_2017b_levaRetro_acc.obj
 0004:000000d8       $pdata$c1_e_emlrt_marshallIn 00000001800780d8     c1_modello_2017b_levaRetro_acc.obj
 0004:000000e4       $pdata$c1_e_sf_marshallOut 00000001800780e4     c1_modello_2017b_levaRetro_acc.obj
 0004:000000f0       $pdata$c1_emlrt_marshallIn 00000001800780f0     c1_modello_2017b_levaRetro_acc.obj
 0004:000000fc       $pdata$c1_enter_atomic_fault 00000001800780fc     c1_modello_2017b_levaRetro_acc.obj
 0004:00000108       $pdata$c1_enter_atomic_fault_reaction_active 0000000180078108     c1_modello_2017b_levaRetro_acc.obj
 0004:00000114       $pdata$c1_enter_atomic_operation_enabled 0000000180078114     c1_modello_2017b_levaRetro_acc.obj
 0004:00000120       $pdata$c1_enter_atomic_quick_stop_active 0000000180078120     c1_modello_2017b_levaRetro_acc.obj
 0004:0000012c       $pdata$c1_enter_atomic_ready_to_switch_on 000000018007812c     c1_modello_2017b_levaRetro_acc.obj
 0004:00000138       $pdata$c1_enter_atomic_switch_on_disabled 0000000180078138     c1_modello_2017b_levaRetro_acc.obj
 0004:00000144       $pdata$c1_enter_atomic_switched_on 0000000180078144     c1_modello_2017b_levaRetro_acc.obj
 0004:00000150       $pdata$c1_exit_internal_DS402StateMachine 0000000180078150     c1_modello_2017b_levaRetro_acc.obj
 0004:0000015c       $pdata$c1_f_emlrt_marshallIn 000000018007815c     c1_modello_2017b_levaRetro_acc.obj
 0004:00000168       $pdata$c1_f_sf_marshallOut 0000000180078168     c1_modello_2017b_levaRetro_acc.obj
 0004:00000174       $pdata$c1_g_emlrt_marshallIn 0000000180078174     c1_modello_2017b_levaRetro_acc.obj
 0004:00000180       $pdata$c1_h_emlrt_marshallIn 0000000180078180     c1_modello_2017b_levaRetro_acc.obj
 0004:0000018c       $pdata$c1_i_emlrt_marshallIn 000000018007818c     c1_modello_2017b_levaRetro_acc.obj
 0004:00000198       $pdata$c1_j_emlrt_marshallIn 0000000180078198     c1_modello_2017b_levaRetro_acc.obj
 0004:000001a4       $pdata$c1_not_ready_to_switch_on 00000001800781a4     c1_modello_2017b_levaRetro_acc.obj
 0004:000001b0       $pdata$c1_operation_enabled 00000001800781b0     c1_modello_2017b_levaRetro_acc.obj
 0004:000001bc       $pdata$c1_quick_stop_active 00000001800781bc     c1_modello_2017b_levaRetro_acc.obj
 0004:000001c8       $pdata$c1_ready_to_switch_on 00000001800781c8     c1_modello_2017b_levaRetro_acc.obj
 0004:000001d4       $pdata$c1_reset_fault_logic 00000001800781d4     c1_modello_2017b_levaRetro_acc.obj
 0004:000001e0       $pdata$c1_sf_marshallIn    00000001800781e0     c1_modello_2017b_levaRetro_acc.obj
 0004:000001ec       $pdata$c1_sf_marshallOut   00000001800781ec     c1_modello_2017b_levaRetro_acc.obj
 0004:000001f8       $pdata$c1_switch_on_disabled 00000001800781f8     c1_modello_2017b_levaRetro_acc.obj
 0004:00000204       $pdata$c1_switched_on      0000000180078204     c1_modello_2017b_levaRetro_acc.obj
 0004:00000210       $pdata$c1_update_debugger_state_c1_modello_2017b_levaRetro_acc 0000000180078210     c1_modello_2017b_levaRetro_acc.obj
 0004:0000021c       $pdata$chart_debug_initialization 000000018007821c     c1_modello_2017b_levaRetro_acc.obj
 0004:00000228       $pdata$4$chart_debug_initialization 0000000180078228     c1_modello_2017b_levaRetro_acc.obj
 0004:00000234       $pdata$5$chart_debug_initialization 0000000180078234     c1_modello_2017b_levaRetro_acc.obj
 0004:00000240       $pdata$chart_debug_initialize_data_addresses 0000000180078240     c1_modello_2017b_levaRetro_acc.obj
 0004:0000024c       $pdata$0$chart_debug_initialize_data_addresses 000000018007824c     c1_modello_2017b_levaRetro_acc.obj
 0004:00000258       $pdata$1$chart_debug_initialize_data_addresses 0000000180078258     c1_modello_2017b_levaRetro_acc.obj
 0004:00000264       $pdata$disable_c1_modello_2017b_levaRetro_acc 0000000180078264     c1_modello_2017b_levaRetro_acc.obj
 0004:00000270       $pdata$enable_c1_modello_2017b_levaRetro_acc 0000000180078270     c1_modello_2017b_levaRetro_acc.obj
 0004:0000027c       $pdata$get_sim_state_c1_modello_2017b_levaRetro_acc 000000018007827c     c1_modello_2017b_levaRetro_acc.obj
 0004:00000288       $pdata$init_simulink_io_address 0000000180078288     c1_modello_2017b_levaRetro_acc.obj
 0004:00000294       $pdata$initialize_c1_modello_2017b_levaRetro_acc 0000000180078294     c1_modello_2017b_levaRetro_acc.obj
 0004:000002a0       $pdata$mdlProcessParameters_c1_modello_2017b_levaRetro_acc 00000001800782a0     c1_modello_2017b_levaRetro_acc.obj
 0004:000002ac       $pdata$0$mdlProcessParameters_c1_modello_2017b_levaRetro_acc 00000001800782ac     c1_modello_2017b_levaRetro_acc.obj
 0004:000002b8       $pdata$1$mdlProcessParameters_c1_modello_2017b_levaRetro_acc 00000001800782b8     c1_modello_2017b_levaRetro_acc.obj
 0004:000002c4       $pdata$2$mdlProcessParameters_c1_modello_2017b_levaRetro_acc 00000001800782c4     c1_modello_2017b_levaRetro_acc.obj
 0004:000002d0       $pdata$3$mdlProcessParameters_c1_modello_2017b_levaRetro_acc 00000001800782d0     c1_modello_2017b_levaRetro_acc.obj
 0004:000002dc       $pdata$mdlRTW_c1_modello_2017b_levaRetro_acc 00000001800782dc     c1_modello_2017b_levaRetro_acc.obj
 0004:000002e8       $pdata$mdlSetWorkWidths_c1_modello_2017b_levaRetro_acc 00000001800782e8     c1_modello_2017b_levaRetro_acc.obj
 0004:000002f4       $pdata$2$mdlSetWorkWidths_c1_modello_2017b_levaRetro_acc 00000001800782f4     c1_modello_2017b_levaRetro_acc.obj
 0004:00000300       $pdata$3$mdlSetWorkWidths_c1_modello_2017b_levaRetro_acc 0000000180078300     c1_modello_2017b_levaRetro_acc.obj
 0004:0000030c       $pdata$4$mdlSetWorkWidths_c1_modello_2017b_levaRetro_acc 000000018007830c     c1_modello_2017b_levaRetro_acc.obj
 0004:00000318       $pdata$mdlStart_c1_modello_2017b_levaRetro_acc 0000000180078318     c1_modello_2017b_levaRetro_acc.obj
 0004:00000324       $pdata$set_sim_state_c1_modello_2017b_levaRetro_acc 0000000180078324     c1_modello_2017b_levaRetro_acc.obj
 0004:00000330       $pdata$sf_c1_modello_2017b_levaRetro_acc_get_autoinheritance_info 0000000180078330     c1_modello_2017b_levaRetro_acc.obj
 0004:0000033c       $pdata$sf_c1_modello_2017b_levaRetro_acc_get_check_sum 000000018007833c     c1_modello_2017b_levaRetro_acc.obj
 0004:00000348       $pdata$sf_c1_modello_2017b_levaRetro_acc_get_eml_resolved_functions_info 0000000180078348     c1_modello_2017b_levaRetro_acc.obj
 0004:00000354       $pdata$sf_c1_modello_2017b_levaRetro_acc_get_post_codegen_info 0000000180078354     c1_modello_2017b_levaRetro_acc.obj
 0004:00000360       $pdata$sf_c1_modello_2017b_levaRetro_acc_get_testpoint_info 0000000180078360     c1_modello_2017b_levaRetro_acc.obj
 0004:0000036c       $pdata$sf_c1_modello_2017b_levaRetro_acc_jit_fallback_info 000000018007836c     c1_modello_2017b_levaRetro_acc.obj
 0004:00000378       $pdata$sf_check_dwork_consistency 0000000180078378     c1_modello_2017b_levaRetro_acc.obj
 0004:00000384       $pdata$1$sf_check_dwork_consistency 0000000180078384     c1_modello_2017b_levaRetro_acc.obj
 0004:00000390       $pdata$2$sf_check_dwork_consistency 0000000180078390     c1_modello_2017b_levaRetro_acc.obj
 0004:0000039c       $pdata$sf_gateway_c1_modello_2017b_levaRetro_acc 000000018007839c     c1_modello_2017b_levaRetro_acc.obj
 0004:000003a8       $pdata$0$sf_gateway_c1_modello_2017b_levaRetro_acc 00000001800783a8     c1_modello_2017b_levaRetro_acc.obj
 0004:000003b4       $pdata$1$sf_gateway_c1_modello_2017b_levaRetro_acc 00000001800783b4     c1_modello_2017b_levaRetro_acc.obj
 0004:000003c0       $pdata$sf_get_sim_state_info_c1_modello_2017b_levaRetro_acc 00000001800783c0     c1_modello_2017b_levaRetro_acc.obj
 0004:000003cc       $pdata$sf_opaque_disable_c1_modello_2017b_levaRetro_acc 00000001800783cc     c1_modello_2017b_levaRetro_acc.obj
 0004:000003d8       $pdata$sf_opaque_enable_c1_modello_2017b_levaRetro_acc 00000001800783d8     c1_modello_2017b_levaRetro_acc.obj
 0004:000003e4       $pdata$sf_opaque_get_sim_state_c1_modello_2017b_levaRetro_acc 00000001800783e4     c1_modello_2017b_levaRetro_acc.obj
 0004:000003f0       $pdata$sf_opaque_initialize_c1_modello_2017b_levaRetro_acc 00000001800783f0     c1_modello_2017b_levaRetro_acc.obj
 0004:000003fc       $pdata$sf_opaque_set_sim_state_c1_modello_2017b_levaRetro_acc 00000001800783fc     c1_modello_2017b_levaRetro_acc.obj
 0004:00000408       $pdata$sf_opaque_terminate_c1_modello_2017b_levaRetro_acc 0000000180078408     c1_modello_2017b_levaRetro_acc.obj
 0004:00000414       $pdata$0$sf_opaque_terminate_c1_modello_2017b_levaRetro_acc 0000000180078414     c1_modello_2017b_levaRetro_acc.obj
 0004:00000420       $pdata$1$sf_opaque_terminate_c1_modello_2017b_levaRetro_acc 0000000180078420     c1_modello_2017b_levaRetro_acc.obj
 0004:0000042c       $pdata$sf_set_sfun_dwork_info 000000018007842c     c1_modello_2017b_levaRetro_acc.obj
 0004:00000438       $pdata$c2_INIT             0000000180078438     c2_modello_2017b_levaRetro_acc.obj
 0004:00000444       $pdata$c2_OPERATIONAL      0000000180078444     c2_modello_2017b_levaRetro_acc.obj
 0004:00000450       $pdata$c2_PRE_OP           0000000180078450     c2_modello_2017b_levaRetro_acc.obj
 0004:0000045c       $pdata$c2_b_emlrt_marshallIn 000000018007845c     c2_modello_2017b_levaRetro_acc.obj
 0004:00000468       $pdata$c2_b_sf_marshallIn  0000000180078468     c2_modello_2017b_levaRetro_acc.obj
 0004:00000474       $pdata$c2_b_sf_marshallOut 0000000180078474     c2_modello_2017b_levaRetro_acc.obj
 0004:00000480       $pdata$c2_c_emlrt_marshallIn 0000000180078480     c2_modello_2017b_levaRetro_acc.obj
 0004:0000048c       $pdata$c2_c_sf_marshallOut 000000018007848c     c2_modello_2017b_levaRetro_acc.obj
 0004:00000498       $pdata$c2_chartstep_c2_modello_2017b_levaRetro_acc 0000000180078498     c2_modello_2017b_levaRetro_acc.obj
 0004:000004a4       $pdata$c2_d_sf_marshallOut 00000001800784a4     c2_modello_2017b_levaRetro_acc.obj
 0004:000004b0       $pdata$c2_e_emlrt_marshallIn 00000001800784b0     c2_modello_2017b_levaRetro_acc.obj
 0004:000004bc       $pdata$c2_emlrt_marshallIn 00000001800784bc     c2_modello_2017b_levaRetro_acc.obj
 0004:000004c8       $pdata$c2_f_emlrt_marshallIn 00000001800784c8     c2_modello_2017b_levaRetro_acc.obj
 0004:000004d4       $pdata$c2_g_emlrt_marshallIn 00000001800784d4     c2_modello_2017b_levaRetro_acc.obj
 0004:000004e0       $pdata$c2_h_emlrt_marshallIn 00000001800784e0     c2_modello_2017b_levaRetro_acc.obj
 0004:000004ec       $pdata$c2_i_emlrt_marshallIn 00000001800784ec     c2_modello_2017b_levaRetro_acc.obj
 0004:000004f8       $pdata$c2_j_emlrt_marshallIn 00000001800784f8     c2_modello_2017b_levaRetro_acc.obj
 0004:00000504       $pdata$c2_sf_marshallIn    0000000180078504     c2_modello_2017b_levaRetro_acc.obj
 0004:00000510       $pdata$c2_sf_marshallOut   0000000180078510     c2_modello_2017b_levaRetro_acc.obj
 0004:0000051c       $pdata$c2_update_debugger_state_c2_modello_2017b_levaRetro_acc 000000018007851c     c2_modello_2017b_levaRetro_acc.obj
 0004:00000528       $pdata$chart_debug_initialization 0000000180078528     c2_modello_2017b_levaRetro_acc.obj
 0004:00000534       $pdata$4$chart_debug_initialization 0000000180078534     c2_modello_2017b_levaRetro_acc.obj
 0004:00000540       $pdata$5$chart_debug_initialization 0000000180078540     c2_modello_2017b_levaRetro_acc.obj
 0004:0000054c       $pdata$chart_debug_initialize_data_addresses 000000018007854c     c2_modello_2017b_levaRetro_acc.obj
 0004:00000558       $pdata$0$chart_debug_initialize_data_addresses 0000000180078558     c2_modello_2017b_levaRetro_acc.obj
 0004:00000564       $pdata$1$chart_debug_initialize_data_addresses 0000000180078564     c2_modello_2017b_levaRetro_acc.obj
 0004:00000570       $pdata$disable_c2_modello_2017b_levaRetro_acc 0000000180078570     c2_modello_2017b_levaRetro_acc.obj
 0004:0000057c       $pdata$enable_c2_modello_2017b_levaRetro_acc 000000018007857c     c2_modello_2017b_levaRetro_acc.obj
 0004:00000588       $pdata$get_sim_state_c2_modello_2017b_levaRetro_acc 0000000180078588     c2_modello_2017b_levaRetro_acc.obj
 0004:00000594       $pdata$init_simulink_io_address 0000000180078594     c2_modello_2017b_levaRetro_acc.obj
 0004:000005a0       $pdata$initialize_c2_modello_2017b_levaRetro_acc 00000001800785a0     c2_modello_2017b_levaRetro_acc.obj
 0004:000005ac       $pdata$mdlProcessParameters_c2_modello_2017b_levaRetro_acc 00000001800785ac     c2_modello_2017b_levaRetro_acc.obj
 0004:000005b8       $pdata$0$mdlProcessParameters_c2_modello_2017b_levaRetro_acc 00000001800785b8     c2_modello_2017b_levaRetro_acc.obj
 0004:000005c4       $pdata$1$mdlProcessParameters_c2_modello_2017b_levaRetro_acc 00000001800785c4     c2_modello_2017b_levaRetro_acc.obj
 0004:000005d0       $pdata$2$mdlProcessParameters_c2_modello_2017b_levaRetro_acc 00000001800785d0     c2_modello_2017b_levaRetro_acc.obj
 0004:000005dc       $pdata$3$mdlProcessParameters_c2_modello_2017b_levaRetro_acc 00000001800785dc     c2_modello_2017b_levaRetro_acc.obj
 0004:000005e8       $pdata$mdlRTW_c2_modello_2017b_levaRetro_acc 00000001800785e8     c2_modello_2017b_levaRetro_acc.obj
 0004:000005f4       $pdata$mdlSetWorkWidths_c2_modello_2017b_levaRetro_acc 00000001800785f4     c2_modello_2017b_levaRetro_acc.obj
 0004:00000600       $pdata$2$mdlSetWorkWidths_c2_modello_2017b_levaRetro_acc 0000000180078600     c2_modello_2017b_levaRetro_acc.obj
 0004:0000060c       $pdata$3$mdlSetWorkWidths_c2_modello_2017b_levaRetro_acc 000000018007860c     c2_modello_2017b_levaRetro_acc.obj
 0004:00000618       $pdata$4$mdlSetWorkWidths_c2_modello_2017b_levaRetro_acc 0000000180078618     c2_modello_2017b_levaRetro_acc.obj
 0004:00000624       $pdata$mdlStart_c2_modello_2017b_levaRetro_acc 0000000180078624     c2_modello_2017b_levaRetro_acc.obj
 0004:00000630       $pdata$set_sim_state_c2_modello_2017b_levaRetro_acc 0000000180078630     c2_modello_2017b_levaRetro_acc.obj
 0004:0000063c       $pdata$sf_c2_modello_2017b_levaRetro_acc_get_autoinheritance_info 000000018007863c     c2_modello_2017b_levaRetro_acc.obj
 0004:00000648       $pdata$sf_c2_modello_2017b_levaRetro_acc_get_check_sum 0000000180078648     c2_modello_2017b_levaRetro_acc.obj
 0004:00000654       $pdata$sf_c2_modello_2017b_levaRetro_acc_get_eml_resolved_functions_info 0000000180078654     c2_modello_2017b_levaRetro_acc.obj
 0004:00000660       $pdata$sf_c2_modello_2017b_levaRetro_acc_get_post_codegen_info 0000000180078660     c2_modello_2017b_levaRetro_acc.obj
 0004:0000066c       $pdata$sf_c2_modello_2017b_levaRetro_acc_get_testpoint_info 000000018007866c     c2_modello_2017b_levaRetro_acc.obj
 0004:00000678       $pdata$sf_c2_modello_2017b_levaRetro_acc_jit_fallback_info 0000000180078678     c2_modello_2017b_levaRetro_acc.obj
 0004:00000684       $pdata$sf_check_dwork_consistency 0000000180078684     c2_modello_2017b_levaRetro_acc.obj
 0004:00000690       $pdata$1$sf_check_dwork_consistency 0000000180078690     c2_modello_2017b_levaRetro_acc.obj
 0004:0000069c       $pdata$2$sf_check_dwork_consistency 000000018007869c     c2_modello_2017b_levaRetro_acc.obj
 0004:000006a8       $pdata$sf_gateway_c2_modello_2017b_levaRetro_acc 00000001800786a8     c2_modello_2017b_levaRetro_acc.obj
 0004:000006b4       $pdata$sf_get_sim_state_info_c2_modello_2017b_levaRetro_acc 00000001800786b4     c2_modello_2017b_levaRetro_acc.obj
 0004:000006c0       $pdata$sf_opaque_disable_c2_modello_2017b_levaRetro_acc 00000001800786c0     c2_modello_2017b_levaRetro_acc.obj
 0004:000006cc       $pdata$sf_opaque_enable_c2_modello_2017b_levaRetro_acc 00000001800786cc     c2_modello_2017b_levaRetro_acc.obj
 0004:000006d8       $pdata$sf_opaque_get_sim_state_c2_modello_2017b_levaRetro_acc 00000001800786d8     c2_modello_2017b_levaRetro_acc.obj
 0004:000006e4       $pdata$sf_opaque_initialize_c2_modello_2017b_levaRetro_acc 00000001800786e4     c2_modello_2017b_levaRetro_acc.obj
 0004:000006f0       $pdata$sf_opaque_set_sim_state_c2_modello_2017b_levaRetro_acc 00000001800786f0     c2_modello_2017b_levaRetro_acc.obj
 0004:000006fc       $pdata$sf_opaque_terminate_c2_modello_2017b_levaRetro_acc 00000001800786fc     c2_modello_2017b_levaRetro_acc.obj
 0004:00000708       $pdata$0$sf_opaque_terminate_c2_modello_2017b_levaRetro_acc 0000000180078708     c2_modello_2017b_levaRetro_acc.obj
 0004:00000714       $pdata$1$sf_opaque_terminate_c2_modello_2017b_levaRetro_acc 0000000180078714     c2_modello_2017b_levaRetro_acc.obj
 0004:00000720       $pdata$sf_set_sfun_dwork_info 0000000180078720     c2_modello_2017b_levaRetro_acc.obj
 0004:0000072c       $pdata$c3_DS402StateMachine 000000018007872c     c3_modello_2017b_levaRetro_acc.obj
 0004:00000738       $pdata$c3_b_emlrt_marshallIn 0000000180078738     c3_modello_2017b_levaRetro_acc.obj
 0004:00000744       $pdata$c3_b_sf_marshallIn  0000000180078744     c3_modello_2017b_levaRetro_acc.obj
 0004:00000750       $pdata$c3_b_sf_marshallOut 0000000180078750     c3_modello_2017b_levaRetro_acc.obj
 0004:0000075c       $pdata$c3_c_emlrt_marshallIn 000000018007875c     c3_modello_2017b_levaRetro_acc.obj
 0004:00000768       $pdata$c3_e_emlrt_marshallIn 0000000180078768     c3_modello_2017b_levaRetro_acc.obj
 0004:00000774       $pdata$c3_e_sf_marshallOut 0000000180078774     c3_modello_2017b_levaRetro_acc.obj
 0004:00000780       $pdata$c3_emlrt_marshallIn 0000000180078780     c3_modello_2017b_levaRetro_acc.obj
 0004:0000078c       $pdata$c3_enter_atomic_fault 000000018007878c     c3_modello_2017b_levaRetro_acc.obj
 0004:00000798       $pdata$c3_enter_atomic_fault_reaction_active 0000000180078798     c3_modello_2017b_levaRetro_acc.obj
 0004:000007a4       $pdata$c3_enter_atomic_operation_enabled 00000001800787a4     c3_modello_2017b_levaRetro_acc.obj
 0004:000007b0       $pdata$c3_enter_atomic_quick_stop_active 00000001800787b0     c3_modello_2017b_levaRetro_acc.obj
 0004:000007bc       $pdata$c3_enter_atomic_ready_to_switch_on 00000001800787bc     c3_modello_2017b_levaRetro_acc.obj
 0004:000007c8       $pdata$c3_enter_atomic_switch_on_disabled 00000001800787c8     c3_modello_2017b_levaRetro_acc.obj
 0004:000007d4       $pdata$c3_enter_atomic_switched_on 00000001800787d4     c3_modello_2017b_levaRetro_acc.obj
 0004:000007e0       $pdata$c3_exit_internal_DS402StateMachine 00000001800787e0     c3_modello_2017b_levaRetro_acc.obj
 0004:000007ec       $pdata$c3_f_emlrt_marshallIn 00000001800787ec     c3_modello_2017b_levaRetro_acc.obj
 0004:000007f8       $pdata$c3_f_sf_marshallOut 00000001800787f8     c3_modello_2017b_levaRetro_acc.obj
 0004:00000804       $pdata$c3_g_emlrt_marshallIn 0000000180078804     c3_modello_2017b_levaRetro_acc.obj
 0004:00000810       $pdata$c3_h_emlrt_marshallIn 0000000180078810     c3_modello_2017b_levaRetro_acc.obj
 0004:0000081c       $pdata$c3_i_emlrt_marshallIn 000000018007881c     c3_modello_2017b_levaRetro_acc.obj
 0004:00000828       $pdata$c3_j_emlrt_marshallIn 0000000180078828     c3_modello_2017b_levaRetro_acc.obj
 0004:00000834       $pdata$c3_not_ready_to_switch_on 0000000180078834     c3_modello_2017b_levaRetro_acc.obj
 0004:00000840       $pdata$c3_operation_enabled 0000000180078840     c3_modello_2017b_levaRetro_acc.obj
 0004:0000084c       $pdata$c3_quick_stop_active 000000018007884c     c3_modello_2017b_levaRetro_acc.obj
 0004:00000858       $pdata$c3_ready_to_switch_on 0000000180078858     c3_modello_2017b_levaRetro_acc.obj
 0004:00000864       $pdata$c3_reset_fault_logic 0000000180078864     c3_modello_2017b_levaRetro_acc.obj
 0004:00000870       $pdata$c3_sf_marshallIn    0000000180078870     c3_modello_2017b_levaRetro_acc.obj
 0004:0000087c       $pdata$c3_sf_marshallOut   000000018007887c     c3_modello_2017b_levaRetro_acc.obj
 0004:00000888       $pdata$c3_switch_on_disabled 0000000180078888     c3_modello_2017b_levaRetro_acc.obj
 0004:00000894       $pdata$c3_switched_on      0000000180078894     c3_modello_2017b_levaRetro_acc.obj
 0004:000008a0       $pdata$c3_update_debugger_state_c3_modello_2017b_levaRetro_acc 00000001800788a0     c3_modello_2017b_levaRetro_acc.obj
 0004:000008ac       $pdata$chart_debug_initialization 00000001800788ac     c3_modello_2017b_levaRetro_acc.obj
 0004:000008b8       $pdata$4$chart_debug_initialization 00000001800788b8     c3_modello_2017b_levaRetro_acc.obj
 0004:000008c4       $pdata$5$chart_debug_initialization 00000001800788c4     c3_modello_2017b_levaRetro_acc.obj
 0004:000008d0       $pdata$chart_debug_initialize_data_addresses 00000001800788d0     c3_modello_2017b_levaRetro_acc.obj
 0004:000008dc       $pdata$0$chart_debug_initialize_data_addresses 00000001800788dc     c3_modello_2017b_levaRetro_acc.obj
 0004:000008e8       $pdata$1$chart_debug_initialize_data_addresses 00000001800788e8     c3_modello_2017b_levaRetro_acc.obj
 0004:000008f4       $pdata$disable_c3_modello_2017b_levaRetro_acc 00000001800788f4     c3_modello_2017b_levaRetro_acc.obj
 0004:00000900       $pdata$enable_c3_modello_2017b_levaRetro_acc 0000000180078900     c3_modello_2017b_levaRetro_acc.obj
 0004:0000090c       $pdata$get_sim_state_c3_modello_2017b_levaRetro_acc 000000018007890c     c3_modello_2017b_levaRetro_acc.obj
 0004:00000918       $pdata$init_simulink_io_address 0000000180078918     c3_modello_2017b_levaRetro_acc.obj
 0004:00000924       $pdata$initialize_c3_modello_2017b_levaRetro_acc 0000000180078924     c3_modello_2017b_levaRetro_acc.obj
 0004:00000930       $pdata$mdlProcessParameters_c3_modello_2017b_levaRetro_acc 0000000180078930     c3_modello_2017b_levaRetro_acc.obj
 0004:0000093c       $pdata$0$mdlProcessParameters_c3_modello_2017b_levaRetro_acc 000000018007893c     c3_modello_2017b_levaRetro_acc.obj
 0004:00000948       $pdata$1$mdlProcessParameters_c3_modello_2017b_levaRetro_acc 0000000180078948     c3_modello_2017b_levaRetro_acc.obj
 0004:00000954       $pdata$2$mdlProcessParameters_c3_modello_2017b_levaRetro_acc 0000000180078954     c3_modello_2017b_levaRetro_acc.obj
 0004:00000960       $pdata$3$mdlProcessParameters_c3_modello_2017b_levaRetro_acc 0000000180078960     c3_modello_2017b_levaRetro_acc.obj
 0004:0000096c       $pdata$mdlRTW_c3_modello_2017b_levaRetro_acc 000000018007896c     c3_modello_2017b_levaRetro_acc.obj
 0004:00000978       $pdata$mdlSetWorkWidths_c3_modello_2017b_levaRetro_acc 0000000180078978     c3_modello_2017b_levaRetro_acc.obj
 0004:00000984       $pdata$2$mdlSetWorkWidths_c3_modello_2017b_levaRetro_acc 0000000180078984     c3_modello_2017b_levaRetro_acc.obj
 0004:00000990       $pdata$3$mdlSetWorkWidths_c3_modello_2017b_levaRetro_acc 0000000180078990     c3_modello_2017b_levaRetro_acc.obj
 0004:0000099c       $pdata$4$mdlSetWorkWidths_c3_modello_2017b_levaRetro_acc 000000018007899c     c3_modello_2017b_levaRetro_acc.obj
 0004:000009a8       $pdata$mdlStart_c3_modello_2017b_levaRetro_acc 00000001800789a8     c3_modello_2017b_levaRetro_acc.obj
 0004:000009b4       $pdata$set_sim_state_c3_modello_2017b_levaRetro_acc 00000001800789b4     c3_modello_2017b_levaRetro_acc.obj
 0004:000009c0       $pdata$sf_c3_modello_2017b_levaRetro_acc_get_autoinheritance_info 00000001800789c0     c3_modello_2017b_levaRetro_acc.obj
 0004:000009cc       $pdata$sf_c3_modello_2017b_levaRetro_acc_get_check_sum 00000001800789cc     c3_modello_2017b_levaRetro_acc.obj
 0004:000009d8       $pdata$sf_c3_modello_2017b_levaRetro_acc_get_eml_resolved_functions_info 00000001800789d8     c3_modello_2017b_levaRetro_acc.obj
 0004:000009e4       $pdata$sf_c3_modello_2017b_levaRetro_acc_get_post_codegen_info 00000001800789e4     c3_modello_2017b_levaRetro_acc.obj
 0004:000009f0       $pdata$sf_c3_modello_2017b_levaRetro_acc_get_testpoint_info 00000001800789f0     c3_modello_2017b_levaRetro_acc.obj
 0004:000009fc       $pdata$sf_c3_modello_2017b_levaRetro_acc_jit_fallback_info 00000001800789fc     c3_modello_2017b_levaRetro_acc.obj
 0004:00000a08       $pdata$sf_check_dwork_consistency 0000000180078a08     c3_modello_2017b_levaRetro_acc.obj
 0004:00000a14       $pdata$1$sf_check_dwork_consistency 0000000180078a14     c3_modello_2017b_levaRetro_acc.obj
 0004:00000a20       $pdata$2$sf_check_dwork_consistency 0000000180078a20     c3_modello_2017b_levaRetro_acc.obj
 0004:00000a2c       $pdata$sf_gateway_c3_modello_2017b_levaRetro_acc 0000000180078a2c     c3_modello_2017b_levaRetro_acc.obj
 0004:00000a38       $pdata$0$sf_gateway_c3_modello_2017b_levaRetro_acc 0000000180078a38     c3_modello_2017b_levaRetro_acc.obj
 0004:00000a44       $pdata$1$sf_gateway_c3_modello_2017b_levaRetro_acc 0000000180078a44     c3_modello_2017b_levaRetro_acc.obj
 0004:00000a50       $pdata$sf_get_sim_state_info_c3_modello_2017b_levaRetro_acc 0000000180078a50     c3_modello_2017b_levaRetro_acc.obj
 0004:00000a5c       $pdata$sf_opaque_disable_c3_modello_2017b_levaRetro_acc 0000000180078a5c     c3_modello_2017b_levaRetro_acc.obj
 0004:00000a68       $pdata$sf_opaque_enable_c3_modello_2017b_levaRetro_acc 0000000180078a68     c3_modello_2017b_levaRetro_acc.obj
 0004:00000a74       $pdata$sf_opaque_get_sim_state_c3_modello_2017b_levaRetro_acc 0000000180078a74     c3_modello_2017b_levaRetro_acc.obj
 0004:00000a80       $pdata$sf_opaque_initialize_c3_modello_2017b_levaRetro_acc 0000000180078a80     c3_modello_2017b_levaRetro_acc.obj
 0004:00000a8c       $pdata$sf_opaque_set_sim_state_c3_modello_2017b_levaRetro_acc 0000000180078a8c     c3_modello_2017b_levaRetro_acc.obj
 0004:00000a98       $pdata$sf_opaque_terminate_c3_modello_2017b_levaRetro_acc 0000000180078a98     c3_modello_2017b_levaRetro_acc.obj
 0004:00000aa4       $pdata$0$sf_opaque_terminate_c3_modello_2017b_levaRetro_acc 0000000180078aa4     c3_modello_2017b_levaRetro_acc.obj
 0004:00000ab0       $pdata$1$sf_opaque_terminate_c3_modello_2017b_levaRetro_acc 0000000180078ab0     c3_modello_2017b_levaRetro_acc.obj
 0004:00000abc       $pdata$sf_set_sfun_dwork_info 0000000180078abc     c3_modello_2017b_levaRetro_acc.obj
 0004:00000ac8       $pdata$c27_ACTIVATE_DRIVES 0000000180078ac8     c27_modello_2017b_levaRetro_acc.obj
 0004:00000ad4       $pdata$c27_DRIVES_ACTIVE   0000000180078ad4     c27_modello_2017b_levaRetro_acc.obj
 0004:00000ae0       $pdata$c27_b_emlrt_marshallIn 0000000180078ae0     c27_modello_2017b_levaRetro_acc.obj
 0004:00000aec       $pdata$c27_b_sf_marshallIn 0000000180078aec     c27_modello_2017b_levaRetro_acc.obj
 0004:00000af8       $pdata$c27_b_sf_marshallOut 0000000180078af8     c27_modello_2017b_levaRetro_acc.obj
 0004:00000b04       $pdata$c27_c_emlrt_marshallIn 0000000180078b04     c27_modello_2017b_levaRetro_acc.obj
 0004:00000b10       $pdata$c27_chartstep_c27_modello_2017b_levaRetro_acc 0000000180078b10     c27_modello_2017b_levaRetro_acc.obj
 0004:00000b1c       $pdata$c27_d_sf_marshallOut 0000000180078b1c     c27_modello_2017b_levaRetro_acc.obj
 0004:00000b28       $pdata$c27_e_emlrt_marshallIn 0000000180078b28     c27_modello_2017b_levaRetro_acc.obj
 0004:00000b34       $pdata$c27_emlrt_marshallIn 0000000180078b34     c27_modello_2017b_levaRetro_acc.obj
 0004:00000b40       $pdata$c27_f_emlrt_marshallIn 0000000180078b40     c27_modello_2017b_levaRetro_acc.obj
 0004:00000b4c       $pdata$c27_g_emlrt_marshallIn 0000000180078b4c     c27_modello_2017b_levaRetro_acc.obj
 0004:00000b58       $pdata$c27_h_emlrt_marshallIn 0000000180078b58     c27_modello_2017b_levaRetro_acc.obj
 0004:00000b64       $pdata$c27_i_emlrt_marshallIn 0000000180078b64     c27_modello_2017b_levaRetro_acc.obj
 0004:00000b70       $pdata$c27_j_emlrt_marshallIn 0000000180078b70     c27_modello_2017b_levaRetro_acc.obj
 0004:00000b7c       $pdata$c27_sf_marshallIn   0000000180078b7c     c27_modello_2017b_levaRetro_acc.obj
 0004:00000b88       $pdata$c27_sf_marshallOut  0000000180078b88     c27_modello_2017b_levaRetro_acc.obj
 0004:00000b94       $pdata$c27_update_debugger_state_c27_modello_2017b_levaRetro_acc 0000000180078b94     c27_modello_2017b_levaRetro_acc.obj
 0004:00000ba0       $pdata$chart_debug_initialization 0000000180078ba0     c27_modello_2017b_levaRetro_acc.obj
 0004:00000bac       $pdata$5$chart_debug_initialization 0000000180078bac     c27_modello_2017b_levaRetro_acc.obj
 0004:00000bb8       $pdata$6$chart_debug_initialization 0000000180078bb8     c27_modello_2017b_levaRetro_acc.obj
 0004:00000bc4       $pdata$chart_debug_initialize_data_addresses 0000000180078bc4     c27_modello_2017b_levaRetro_acc.obj
 0004:00000bd0       $pdata$0$chart_debug_initialize_data_addresses 0000000180078bd0     c27_modello_2017b_levaRetro_acc.obj
 0004:00000bdc       $pdata$1$chart_debug_initialize_data_addresses 0000000180078bdc     c27_modello_2017b_levaRetro_acc.obj
 0004:00000be8       $pdata$disable_c27_modello_2017b_levaRetro_acc 0000000180078be8     c27_modello_2017b_levaRetro_acc.obj
 0004:00000bf4       $pdata$enable_c27_modello_2017b_levaRetro_acc 0000000180078bf4     c27_modello_2017b_levaRetro_acc.obj
 0004:00000c00       $pdata$get_sim_state_c27_modello_2017b_levaRetro_acc 0000000180078c00     c27_modello_2017b_levaRetro_acc.obj
 0004:00000c0c       $pdata$init_simulink_io_address 0000000180078c0c     c27_modello_2017b_levaRetro_acc.obj
 0004:00000c18       $pdata$initialize_c27_modello_2017b_levaRetro_acc 0000000180078c18     c27_modello_2017b_levaRetro_acc.obj
 0004:00000c24       $pdata$mdlProcessParameters_c27_modello_2017b_levaRetro_acc 0000000180078c24     c27_modello_2017b_levaRetro_acc.obj
 0004:00000c30       $pdata$0$mdlProcessParameters_c27_modello_2017b_levaRetro_acc 0000000180078c30     c27_modello_2017b_levaRetro_acc.obj
 0004:00000c3c       $pdata$1$mdlProcessParameters_c27_modello_2017b_levaRetro_acc 0000000180078c3c     c27_modello_2017b_levaRetro_acc.obj
 0004:00000c48       $pdata$2$mdlProcessParameters_c27_modello_2017b_levaRetro_acc 0000000180078c48     c27_modello_2017b_levaRetro_acc.obj
 0004:00000c54       $pdata$3$mdlProcessParameters_c27_modello_2017b_levaRetro_acc 0000000180078c54     c27_modello_2017b_levaRetro_acc.obj
 0004:00000c60       $pdata$mdlRTW_c27_modello_2017b_levaRetro_acc 0000000180078c60     c27_modello_2017b_levaRetro_acc.obj
 0004:00000c6c       $pdata$mdlSetWorkWidths_c27_modello_2017b_levaRetro_acc 0000000180078c6c     c27_modello_2017b_levaRetro_acc.obj
 0004:00000c78       $pdata$2$mdlSetWorkWidths_c27_modello_2017b_levaRetro_acc 0000000180078c78     c27_modello_2017b_levaRetro_acc.obj
 0004:00000c84       $pdata$3$mdlSetWorkWidths_c27_modello_2017b_levaRetro_acc 0000000180078c84     c27_modello_2017b_levaRetro_acc.obj
 0004:00000c90       $pdata$4$mdlSetWorkWidths_c27_modello_2017b_levaRetro_acc 0000000180078c90     c27_modello_2017b_levaRetro_acc.obj
 0004:00000c9c       $pdata$mdlStart_c27_modello_2017b_levaRetro_acc 0000000180078c9c     c27_modello_2017b_levaRetro_acc.obj
 0004:00000ca8       $pdata$set_sim_state_c27_modello_2017b_levaRetro_acc 0000000180078ca8     c27_modello_2017b_levaRetro_acc.obj
 0004:00000cb4       $pdata$sf_c27_modello_2017b_levaRetro_acc_get_autoinheritance_info 0000000180078cb4     c27_modello_2017b_levaRetro_acc.obj
 0004:00000cc0       $pdata$sf_c27_modello_2017b_levaRetro_acc_get_check_sum 0000000180078cc0     c27_modello_2017b_levaRetro_acc.obj
 0004:00000ccc       $pdata$sf_c27_modello_2017b_levaRetro_acc_get_eml_resolved_functions_info 0000000180078ccc     c27_modello_2017b_levaRetro_acc.obj
 0004:00000cd8       $pdata$sf_c27_modello_2017b_levaRetro_acc_get_post_codegen_info 0000000180078cd8     c27_modello_2017b_levaRetro_acc.obj
 0004:00000ce4       $pdata$sf_c27_modello_2017b_levaRetro_acc_get_testpoint_info 0000000180078ce4     c27_modello_2017b_levaRetro_acc.obj
 0004:00000cf0       $pdata$sf_c27_modello_2017b_levaRetro_acc_jit_fallback_info 0000000180078cf0     c27_modello_2017b_levaRetro_acc.obj
 0004:00000cfc       $pdata$sf_check_dwork_consistency 0000000180078cfc     c27_modello_2017b_levaRetro_acc.obj
 0004:00000d08       $pdata$1$sf_check_dwork_consistency 0000000180078d08     c27_modello_2017b_levaRetro_acc.obj
 0004:00000d14       $pdata$2$sf_check_dwork_consistency 0000000180078d14     c27_modello_2017b_levaRetro_acc.obj
 0004:00000d20       $pdata$sf_gateway_c27_modello_2017b_levaRetro_acc 0000000180078d20     c27_modello_2017b_levaRetro_acc.obj
 0004:00000d2c       $pdata$sf_get_sim_state_info_c27_modello_2017b_levaRetro_acc 0000000180078d2c     c27_modello_2017b_levaRetro_acc.obj
 0004:00000d38       $pdata$sf_opaque_disable_c27_modello_2017b_levaRetro_acc 0000000180078d38     c27_modello_2017b_levaRetro_acc.obj
 0004:00000d44       $pdata$sf_opaque_enable_c27_modello_2017b_levaRetro_acc 0000000180078d44     c27_modello_2017b_levaRetro_acc.obj
 0004:00000d50       $pdata$sf_opaque_get_sim_state_c27_modello_2017b_levaRetro_acc 0000000180078d50     c27_modello_2017b_levaRetro_acc.obj
 0004:00000d5c       $pdata$sf_opaque_initialize_c27_modello_2017b_levaRetro_acc 0000000180078d5c     c27_modello_2017b_levaRetro_acc.obj
 0004:00000d68       $pdata$sf_opaque_set_sim_state_c27_modello_2017b_levaRetro_acc 0000000180078d68     c27_modello_2017b_levaRetro_acc.obj
 0004:00000d74       $pdata$sf_opaque_terminate_c27_modello_2017b_levaRetro_acc 0000000180078d74     c27_modello_2017b_levaRetro_acc.obj
 0004:00000d80       $pdata$0$sf_opaque_terminate_c27_modello_2017b_levaRetro_acc 0000000180078d80     c27_modello_2017b_levaRetro_acc.obj
 0004:00000d8c       $pdata$1$sf_opaque_terminate_c27_modello_2017b_levaRetro_acc 0000000180078d8c     c27_modello_2017b_levaRetro_acc.obj
 0004:00000d98       $pdata$sf_set_sfun_dwork_info 0000000180078d98     c27_modello_2017b_levaRetro_acc.obj
 0004:00000da4       $pdata$c52_asse_x_dyn      0000000180078da4     c52_modello_2017b_levaRetro_acc.obj
 0004:00000db0       $pdata$1$c52_asse_x_dyn    0000000180078db0     c52_modello_2017b_levaRetro_acc.obj
 0004:00000dbc       $pdata$2$c52_asse_x_dyn    0000000180078dbc     c52_modello_2017b_levaRetro_acc.obj
 0004:00000dc8       $pdata$3$c52_asse_x_dyn    0000000180078dc8     c52_modello_2017b_levaRetro_acc.obj
 0004:00000dd4       $pdata$4$c52_asse_x_dyn    0000000180078dd4     c52_modello_2017b_levaRetro_acc.obj
 0004:00000de0       $pdata$c52_b_emlrt_marshallIn 0000000180078de0     c52_modello_2017b_levaRetro_acc.obj
 0004:00000dec       $pdata$c52_d_emlrt_marshallIn 0000000180078dec     c52_modello_2017b_levaRetro_acc.obj
 0004:00000df8       $pdata$c52_d_sf_marshallIn 0000000180078df8     c52_modello_2017b_levaRetro_acc.obj
 0004:00000e04       $pdata$c52_d_sf_marshallOut 0000000180078e04     c52_modello_2017b_levaRetro_acc.obj
 0004:00000e10       $pdata$c52_e_emlrt_marshallIn 0000000180078e10     c52_modello_2017b_levaRetro_acc.obj
 0004:00000e1c       $pdata$c52_e_sf_marshallOut 0000000180078e1c     c52_modello_2017b_levaRetro_acc.obj
 0004:00000e28       $pdata$c52_emlrt_marshallIn 0000000180078e28     c52_modello_2017b_levaRetro_acc.obj
 0004:00000e34       $pdata$c52_exit_internal_asse_x_dyn 0000000180078e34     c52_modello_2017b_levaRetro_acc.obj
 0004:00000e40       $pdata$c52_f_emlrt_marshallIn 0000000180078e40     c52_modello_2017b_levaRetro_acc.obj
 0004:00000e4c       $pdata$c52_g_emlrt_marshallIn 0000000180078e4c     c52_modello_2017b_levaRetro_acc.obj
 0004:00000e58       $pdata$c52_gearshift_grid_r_dyn 0000000180078e58     c52_modello_2017b_levaRetro_acc.obj
 0004:00000e64       $pdata$c52_h_emlrt_marshallIn 0000000180078e64     c52_modello_2017b_levaRetro_acc.obj
 0004:00000e70       $pdata$c52_muro_selezione_x 0000000180078e70     c52_modello_2017b_levaRetro_acc.obj
 0004:00000e7c       $pdata$0$c52_muro_selezione_x 0000000180078e7c     c52_modello_2017b_levaRetro_acc.obj
 0004:00000e88       $pdata$1$c52_muro_selezione_x 0000000180078e88     c52_modello_2017b_levaRetro_acc.obj
 0004:00000e94       $pdata$c52_rigidezza_finale 0000000180078e94     c52_modello_2017b_levaRetro_acc.obj
 0004:00000ea0       $pdata$1$c52_rigidezza_finale 0000000180078ea0     c52_modello_2017b_levaRetro_acc.obj
 0004:00000eac       $pdata$c52_sf_marshallIn   0000000180078eac     c52_modello_2017b_levaRetro_acc.obj
 0004:00000eb8       $pdata$c52_sf_marshallOut  0000000180078eb8     c52_modello_2017b_levaRetro_acc.obj
 0004:00000ec4       $pdata$c52_update_debugger_state_c52_modello_2017b_levaRetro_acc 0000000180078ec4     c52_modello_2017b_levaRetro_acc.obj
 0004:00000ed0       $pdata$chart_debug_initialization 0000000180078ed0     c52_modello_2017b_levaRetro_acc.obj
 0004:00000edc       $pdata$6$chart_debug_initialization 0000000180078edc     c52_modello_2017b_levaRetro_acc.obj
 0004:00000ee8       $pdata$7$chart_debug_initialization 0000000180078ee8     c52_modello_2017b_levaRetro_acc.obj
 0004:00000ef4       $pdata$chart_debug_initialize_data_addresses 0000000180078ef4     c52_modello_2017b_levaRetro_acc.obj
 0004:00000f00       $pdata$0$chart_debug_initialize_data_addresses 0000000180078f00     c52_modello_2017b_levaRetro_acc.obj
 0004:00000f0c       $pdata$1$chart_debug_initialize_data_addresses 0000000180078f0c     c52_modello_2017b_levaRetro_acc.obj
 0004:00000f18       $pdata$disable_c52_modello_2017b_levaRetro_acc 0000000180078f18     c52_modello_2017b_levaRetro_acc.obj
 0004:00000f24       $pdata$enable_c52_modello_2017b_levaRetro_acc 0000000180078f24     c52_modello_2017b_levaRetro_acc.obj
 0004:00000f30       $pdata$get_sim_state_c52_modello_2017b_levaRetro_acc 0000000180078f30     c52_modello_2017b_levaRetro_acc.obj
 0004:00000f3c       $pdata$init_simulink_io_address 0000000180078f3c     c52_modello_2017b_levaRetro_acc.obj
 0004:00000f48       $pdata$initialize_c52_modello_2017b_levaRetro_acc 0000000180078f48     c52_modello_2017b_levaRetro_acc.obj
 0004:00000f54       $pdata$initialize_params_c52_modello_2017b_levaRetro_acc 0000000180078f54     c52_modello_2017b_levaRetro_acc.obj
 0004:00000f60       $pdata$mdlProcessParameters_c52_modello_2017b_levaRetro_acc 0000000180078f60     c52_modello_2017b_levaRetro_acc.obj
 0004:00000f6c       $pdata$0$mdlProcessParameters_c52_modello_2017b_levaRetro_acc 0000000180078f6c     c52_modello_2017b_levaRetro_acc.obj
 0004:00000f78       $pdata$1$mdlProcessParameters_c52_modello_2017b_levaRetro_acc 0000000180078f78     c52_modello_2017b_levaRetro_acc.obj
 0004:00000f84       $pdata$2$mdlProcessParameters_c52_modello_2017b_levaRetro_acc 0000000180078f84     c52_modello_2017b_levaRetro_acc.obj
 0004:00000f90       $pdata$3$mdlProcessParameters_c52_modello_2017b_levaRetro_acc 0000000180078f90     c52_modello_2017b_levaRetro_acc.obj
 0004:00000f9c       $pdata$mdlRTW_c52_modello_2017b_levaRetro_acc 0000000180078f9c     c52_modello_2017b_levaRetro_acc.obj
 0004:00000fa8       $pdata$mdlSetWorkWidths_c52_modello_2017b_levaRetro_acc 0000000180078fa8     c52_modello_2017b_levaRetro_acc.obj
 0004:00000fb4       $pdata$0$mdlSetWorkWidths_c52_modello_2017b_levaRetro_acc 0000000180078fb4     c52_modello_2017b_levaRetro_acc.obj
 0004:00000fc0       $pdata$3$mdlSetWorkWidths_c52_modello_2017b_levaRetro_acc 0000000180078fc0     c52_modello_2017b_levaRetro_acc.obj
 0004:00000fcc       $pdata$4$mdlSetWorkWidths_c52_modello_2017b_levaRetro_acc 0000000180078fcc     c52_modello_2017b_levaRetro_acc.obj
 0004:00000fd8       $pdata$5$mdlSetWorkWidths_c52_modello_2017b_levaRetro_acc 0000000180078fd8     c52_modello_2017b_levaRetro_acc.obj
 0004:00000fe4       $pdata$6$mdlSetWorkWidths_c52_modello_2017b_levaRetro_acc 0000000180078fe4     c52_modello_2017b_levaRetro_acc.obj
 0004:00000ff0       $pdata$mdlStart_c52_modello_2017b_levaRetro_acc 0000000180078ff0     c52_modello_2017b_levaRetro_acc.obj
 0004:00000ffc       $pdata$set_sim_state_c52_modello_2017b_levaRetro_acc 0000000180078ffc     c52_modello_2017b_levaRetro_acc.obj
 0004:00001008       $pdata$sf_c52_modello_2017b_levaRetro_acc_get_autoinheritance_info 0000000180079008     c52_modello_2017b_levaRetro_acc.obj
 0004:00001014       $pdata$sf_c52_modello_2017b_levaRetro_acc_get_check_sum 0000000180079014     c52_modello_2017b_levaRetro_acc.obj
 0004:00001020       $pdata$sf_c52_modello_2017b_levaRetro_acc_get_eml_resolved_functions_info 0000000180079020     c52_modello_2017b_levaRetro_acc.obj
 0004:0000102c       $pdata$sf_c52_modello_2017b_levaRetro_acc_get_post_codegen_info 000000018007902c     c52_modello_2017b_levaRetro_acc.obj
 0004:00001038       $pdata$sf_c52_modello_2017b_levaRetro_acc_get_testpoint_info 0000000180079038     c52_modello_2017b_levaRetro_acc.obj
 0004:00001044       $pdata$sf_c52_modello_2017b_levaRetro_acc_jit_fallback_info 0000000180079044     c52_modello_2017b_levaRetro_acc.obj
 0004:00001050       $pdata$sf_check_dwork_consistency 0000000180079050     c52_modello_2017b_levaRetro_acc.obj
 0004:0000105c       $pdata$1$sf_check_dwork_consistency 000000018007905c     c52_modello_2017b_levaRetro_acc.obj
 0004:00001068       $pdata$2$sf_check_dwork_consistency 0000000180079068     c52_modello_2017b_levaRetro_acc.obj
 0004:00001074       $pdata$sf_gateway_c52_modello_2017b_levaRetro_acc 0000000180079074     c52_modello_2017b_levaRetro_acc.obj
 0004:00001080       $pdata$0$sf_gateway_c52_modello_2017b_levaRetro_acc 0000000180079080     c52_modello_2017b_levaRetro_acc.obj
 0004:0000108c       $pdata$1$sf_gateway_c52_modello_2017b_levaRetro_acc 000000018007908c     c52_modello_2017b_levaRetro_acc.obj
 0004:00001098       $pdata$sf_get_sim_state_info_c52_modello_2017b_levaRetro_acc 0000000180079098     c52_modello_2017b_levaRetro_acc.obj
 0004:000010a4       $pdata$sf_opaque_disable_c52_modello_2017b_levaRetro_acc 00000001800790a4     c52_modello_2017b_levaRetro_acc.obj
 0004:000010b0       $pdata$sf_opaque_enable_c52_modello_2017b_levaRetro_acc 00000001800790b0     c52_modello_2017b_levaRetro_acc.obj
 0004:000010bc       $pdata$sf_opaque_get_sim_state_c52_modello_2017b_levaRetro_acc 00000001800790bc     c52_modello_2017b_levaRetro_acc.obj
 0004:000010c8       $pdata$sf_opaque_initialize_c52_modello_2017b_levaRetro_acc 00000001800790c8     c52_modello_2017b_levaRetro_acc.obj
 0004:000010d4       $pdata$sf_opaque_set_sim_state_c52_modello_2017b_levaRetro_acc 00000001800790d4     c52_modello_2017b_levaRetro_acc.obj
 0004:000010e0       $pdata$sf_opaque_terminate_c52_modello_2017b_levaRetro_acc 00000001800790e0     c52_modello_2017b_levaRetro_acc.obj
 0004:000010ec       $pdata$0$sf_opaque_terminate_c52_modello_2017b_levaRetro_acc 00000001800790ec     c52_modello_2017b_levaRetro_acc.obj
 0004:000010f8       $pdata$1$sf_opaque_terminate_c52_modello_2017b_levaRetro_acc 00000001800790f8     c52_modello_2017b_levaRetro_acc.obj
 0004:00001104       $pdata$sf_set_sfun_dwork_info 0000000180079104     c52_modello_2017b_levaRetro_acc.obj
 0004:00001110       $pdata$c152_asse_x         0000000180079110     c152_modello_2017b_levaRetro_acc.obj
 0004:0000111c       $pdata$1$c152_asse_x       000000018007911c     c152_modello_2017b_levaRetro_acc.obj
 0004:00001128       $pdata$2$c152_asse_x       0000000180079128     c152_modello_2017b_levaRetro_acc.obj
 0004:00001134       $pdata$3$c152_asse_x       0000000180079134     c152_modello_2017b_levaRetro_acc.obj
 0004:00001140       $pdata$4$c152_asse_x       0000000180079140     c152_modello_2017b_levaRetro_acc.obj
 0004:0000114c       $pdata$c152_b_emlrt_marshallIn 000000018007914c     c152_modello_2017b_levaRetro_acc.obj
 0004:00001158       $pdata$c152_chartstep_c152_modello_2017b_levaRetro_acc 0000000180079158     c152_modello_2017b_levaRetro_acc.obj
 0004:00001164       $pdata$1$c152_chartstep_c152_modello_2017b_levaRetro_acc 0000000180079164     c152_modello_2017b_levaRetro_acc.obj
 0004:00001170       $pdata$3$c152_chartstep_c152_modello_2017b_levaRetro_acc 0000000180079170     c152_modello_2017b_levaRetro_acc.obj
 0004:0000117c       $pdata$4$c152_chartstep_c152_modello_2017b_levaRetro_acc 000000018007917c     c152_modello_2017b_levaRetro_acc.obj
 0004:00001188       $pdata$5$c152_chartstep_c152_modello_2017b_levaRetro_acc 0000000180079188     c152_modello_2017b_levaRetro_acc.obj
 0004:00001194       $pdata$c152_d_emlrt_marshallIn 0000000180079194     c152_modello_2017b_levaRetro_acc.obj
 0004:000011a0       $pdata$c152_d_sf_marshallIn 00000001800791a0     c152_modello_2017b_levaRetro_acc.obj
 0004:000011ac       $pdata$c152_d_sf_marshallOut 00000001800791ac     c152_modello_2017b_levaRetro_acc.obj
 0004:000011b8       $pdata$c152_e_emlrt_marshallIn 00000001800791b8     c152_modello_2017b_levaRetro_acc.obj
 0004:000011c4       $pdata$c152_e_sf_marshallIn 00000001800791c4     c152_modello_2017b_levaRetro_acc.obj
 0004:000011d0       $pdata$c152_e_sf_marshallOut 00000001800791d0     c152_modello_2017b_levaRetro_acc.obj
 0004:000011dc       $pdata$c152_emlrt_marshallIn 00000001800791dc     c152_modello_2017b_levaRetro_acc.obj
 0004:000011e8       $pdata$c152_exit_internal_asse_x 00000001800791e8     c152_modello_2017b_levaRetro_acc.obj
 0004:000011f4       $pdata$c152_f_emlrt_marshallIn 00000001800791f4     c152_modello_2017b_levaRetro_acc.obj
 0004:00001200       $pdata$c152_g_emlrt_marshallIn 0000000180079200     c152_modello_2017b_levaRetro_acc.obj
 0004:0000120c       $pdata$c152_gearshift_grid_r 000000018007920c     c152_modello_2017b_levaRetro_acc.obj
 0004:00001218       $pdata$c152_h_emlrt_marshallIn 0000000180079218     c152_modello_2017b_levaRetro_acc.obj
 0004:00001224       $pdata$c152_i_emlrt_marshallIn 0000000180079224     c152_modello_2017b_levaRetro_acc.obj
 0004:00001230       $pdata$c152_j_emlrt_marshallIn 0000000180079230     c152_modello_2017b_levaRetro_acc.obj
 0004:0000123c       $pdata$c152_muro_selezione_x 000000018007923c     c152_modello_2017b_levaRetro_acc.obj
 0004:00001248       $pdata$0$c152_muro_selezione_x 0000000180079248     c152_modello_2017b_levaRetro_acc.obj
 0004:00001254       $pdata$1$c152_muro_selezione_x 0000000180079254     c152_modello_2017b_levaRetro_acc.obj
 0004:00001260       $pdata$c152_rigidezza_finale 0000000180079260     c152_modello_2017b_levaRetro_acc.obj
 0004:0000126c       $pdata$1$c152_rigidezza_finale 000000018007926c     c152_modello_2017b_levaRetro_acc.obj
 0004:00001278       $pdata$c152_sf_marshallIn  0000000180079278     c152_modello_2017b_levaRetro_acc.obj
 0004:00001284       $pdata$c152_sf_marshallOut 0000000180079284     c152_modello_2017b_levaRetro_acc.obj
 0004:00001290       $pdata$c152_update_debugger_state_c152_modello_2017b_levaRetro_acc 0000000180079290     c152_modello_2017b_levaRetro_acc.obj
 0004:0000129c       $pdata$chart_debug_initialization 000000018007929c     c152_modello_2017b_levaRetro_acc.obj
 0004:000012a8       $pdata$6$chart_debug_initialization 00000001800792a8     c152_modello_2017b_levaRetro_acc.obj
 0004:000012b4       $pdata$7$chart_debug_initialization 00000001800792b4     c152_modello_2017b_levaRetro_acc.obj
 0004:000012c0       $pdata$chart_debug_initialize_data_addresses 00000001800792c0     c152_modello_2017b_levaRetro_acc.obj
 0004:000012cc       $pdata$0$chart_debug_initialize_data_addresses 00000001800792cc     c152_modello_2017b_levaRetro_acc.obj
 0004:000012d8       $pdata$1$chart_debug_initialize_data_addresses 00000001800792d8     c152_modello_2017b_levaRetro_acc.obj
 0004:000012e4       $pdata$disable_c152_modello_2017b_levaRetro_acc 00000001800792e4     c152_modello_2017b_levaRetro_acc.obj
 0004:000012f0       $pdata$enable_c152_modello_2017b_levaRetro_acc 00000001800792f0     c152_modello_2017b_levaRetro_acc.obj
 0004:000012fc       $pdata$get_sim_state_c152_modello_2017b_levaRetro_acc 00000001800792fc     c152_modello_2017b_levaRetro_acc.obj
 0004:00001308       $pdata$init_simulink_io_address 0000000180079308     c152_modello_2017b_levaRetro_acc.obj
 0004:00001314       $pdata$initialize_c152_modello_2017b_levaRetro_acc 0000000180079314     c152_modello_2017b_levaRetro_acc.obj
 0004:00001320       $pdata$initialize_params_c152_modello_2017b_levaRetro_acc 0000000180079320     c152_modello_2017b_levaRetro_acc.obj
 0004:0000132c       $pdata$mdlProcessParameters_c152_modello_2017b_levaRetro_acc 000000018007932c     c152_modello_2017b_levaRetro_acc.obj
 0004:00001338       $pdata$0$mdlProcessParameters_c152_modello_2017b_levaRetro_acc 0000000180079338     c152_modello_2017b_levaRetro_acc.obj
 0004:00001344       $pdata$1$mdlProcessParameters_c152_modello_2017b_levaRetro_acc 0000000180079344     c152_modello_2017b_levaRetro_acc.obj
 0004:00001350       $pdata$2$mdlProcessParameters_c152_modello_2017b_levaRetro_acc 0000000180079350     c152_modello_2017b_levaRetro_acc.obj
 0004:0000135c       $pdata$3$mdlProcessParameters_c152_modello_2017b_levaRetro_acc 000000018007935c     c152_modello_2017b_levaRetro_acc.obj
 0004:00001368       $pdata$mdlRTW_c152_modello_2017b_levaRetro_acc 0000000180079368     c152_modello_2017b_levaRetro_acc.obj
 0004:00001374       $pdata$mdlSetWorkWidths_c152_modello_2017b_levaRetro_acc 0000000180079374     c152_modello_2017b_levaRetro_acc.obj
 0004:00001380       $pdata$0$mdlSetWorkWidths_c152_modello_2017b_levaRetro_acc 0000000180079380     c152_modello_2017b_levaRetro_acc.obj
 0004:0000138c       $pdata$3$mdlSetWorkWidths_c152_modello_2017b_levaRetro_acc 000000018007938c     c152_modello_2017b_levaRetro_acc.obj
 0004:00001398       $pdata$4$mdlSetWorkWidths_c152_modello_2017b_levaRetro_acc 0000000180079398     c152_modello_2017b_levaRetro_acc.obj
 0004:000013a4       $pdata$5$mdlSetWorkWidths_c152_modello_2017b_levaRetro_acc 00000001800793a4     c152_modello_2017b_levaRetro_acc.obj
 0004:000013b0       $pdata$6$mdlSetWorkWidths_c152_modello_2017b_levaRetro_acc 00000001800793b0     c152_modello_2017b_levaRetro_acc.obj
 0004:000013bc       $pdata$mdlStart_c152_modello_2017b_levaRetro_acc 00000001800793bc     c152_modello_2017b_levaRetro_acc.obj
 0004:000013c8       $pdata$set_sim_state_c152_modello_2017b_levaRetro_acc 00000001800793c8     c152_modello_2017b_levaRetro_acc.obj
 0004:000013d4       $pdata$sf_c152_modello_2017b_levaRetro_acc_get_autoinheritance_info 00000001800793d4     c152_modello_2017b_levaRetro_acc.obj
 0004:000013e0       $pdata$sf_c152_modello_2017b_levaRetro_acc_get_check_sum 00000001800793e0     c152_modello_2017b_levaRetro_acc.obj
 0004:000013ec       $pdata$sf_c152_modello_2017b_levaRetro_acc_get_eml_resolved_functions_info 00000001800793ec     c152_modello_2017b_levaRetro_acc.obj
 0004:000013f8       $pdata$sf_c152_modello_2017b_levaRetro_acc_get_post_codegen_info 00000001800793f8     c152_modello_2017b_levaRetro_acc.obj
 0004:00001404       $pdata$sf_c152_modello_2017b_levaRetro_acc_get_testpoint_info 0000000180079404     c152_modello_2017b_levaRetro_acc.obj
 0004:00001410       $pdata$sf_c152_modello_2017b_levaRetro_acc_jit_fallback_info 0000000180079410     c152_modello_2017b_levaRetro_acc.obj
 0004:0000141c       $pdata$sf_check_dwork_consistency 000000018007941c     c152_modello_2017b_levaRetro_acc.obj
 0004:00001428       $pdata$1$sf_check_dwork_consistency 0000000180079428     c152_modello_2017b_levaRetro_acc.obj
 0004:00001434       $pdata$2$sf_check_dwork_consistency 0000000180079434     c152_modello_2017b_levaRetro_acc.obj
 0004:00001440       $pdata$sf_gateway_c152_modello_2017b_levaRetro_acc 0000000180079440     c152_modello_2017b_levaRetro_acc.obj
 0004:0000144c       $pdata$sf_get_sim_state_info_c152_modello_2017b_levaRetro_acc 000000018007944c     c152_modello_2017b_levaRetro_acc.obj
 0004:00001458       $pdata$sf_opaque_disable_c152_modello_2017b_levaRetro_acc 0000000180079458     c152_modello_2017b_levaRetro_acc.obj
 0004:00001464       $pdata$sf_opaque_enable_c152_modello_2017b_levaRetro_acc 0000000180079464     c152_modello_2017b_levaRetro_acc.obj
 0004:00001470       $pdata$sf_opaque_get_sim_state_c152_modello_2017b_levaRetro_acc 0000000180079470     c152_modello_2017b_levaRetro_acc.obj
 0004:0000147c       $pdata$sf_opaque_initialize_c152_modello_2017b_levaRetro_acc 000000018007947c     c152_modello_2017b_levaRetro_acc.obj
 0004:00001488       $pdata$sf_opaque_set_sim_state_c152_modello_2017b_levaRetro_acc 0000000180079488     c152_modello_2017b_levaRetro_acc.obj
 0004:00001494       $pdata$sf_opaque_terminate_c152_modello_2017b_levaRetro_acc 0000000180079494     c152_modello_2017b_levaRetro_acc.obj
 0004:000014a0       $pdata$0$sf_opaque_terminate_c152_modello_2017b_levaRetro_acc 00000001800794a0     c152_modello_2017b_levaRetro_acc.obj
 0004:000014ac       $pdata$1$sf_opaque_terminate_c152_modello_2017b_levaRetro_acc 00000001800794ac     c152_modello_2017b_levaRetro_acc.obj
 0004:000014b8       $pdata$sf_set_sfun_dwork_info 00000001800794b8     c152_modello_2017b_levaRetro_acc.obj
 0004:000014c4       $pdata$c451_THRESHOLD_BL   00000001800794c4     c451_modello_2017b_levaRetro_acc.obj
 0004:000014d0       $pdata$c451_THRESHOLD_BR   00000001800794d0     c451_modello_2017b_levaRetro_acc.obj
 0004:000014dc       $pdata$c451_TRANSITION_PT_BL_RR_PT_BL_RR2 00000001800794dc     c451_modello_2017b_levaRetro_acc.obj
 0004:000014e8       $pdata$c451_TRANSITION_PT_RL_BR2_PT_RL_BR 00000001800794e8     c451_modello_2017b_levaRetro_acc.obj
 0004:000014f4       $pdata$c451_b_emlrt_marshallIn 00000001800794f4     c451_modello_2017b_levaRetro_acc.obj
 0004:00001500       $pdata$c451_c_emlrt_marshallIn 0000000180079500     c451_modello_2017b_levaRetro_acc.obj
 0004:0000150c       $pdata$c451_c_sf_marshallIn 000000018007950c     c451_modello_2017b_levaRetro_acc.obj
 0004:00001518       $pdata$c451_c_sf_marshallOut 0000000180079518     c451_modello_2017b_levaRetro_acc.obj
 0004:00001524       $pdata$c451_d_emlrt_marshallIn 0000000180079524     c451_modello_2017b_levaRetro_acc.obj
 0004:00001530       $pdata$c451_d_sf_marshallIn 0000000180079530     c451_modello_2017b_levaRetro_acc.obj
 0004:0000153c       $pdata$c451_d_sf_marshallOut 000000018007953c     c451_modello_2017b_levaRetro_acc.obj
 0004:00001548       $pdata$c451_e_emlrt_marshallIn 0000000180079548     c451_modello_2017b_levaRetro_acc.obj
 0004:00001554       $pdata$c451_exit_internal_state_machine 0000000180079554     c451_modello_2017b_levaRetro_acc.obj
 0004:00001560       $pdata$c451_f_emlrt_marshallIn 0000000180079560     c451_modello_2017b_levaRetro_acc.obj
 0004:0000156c       $pdata$c451_g_emlrt_marshallIn 000000018007956c     c451_modello_2017b_levaRetro_acc.obj
 0004:00001578       $pdata$c451_h_emlrt_marshallIn 0000000180079578     c451_modello_2017b_levaRetro_acc.obj
 0004:00001584       $pdata$c451_i_emlrt_marshallIn 0000000180079584     c451_modello_2017b_levaRetro_acc.obj
 0004:00001590       $pdata$c451_state_machine  0000000180079590     c451_modello_2017b_levaRetro_acc.obj
 0004:0000159c       $pdata$0$c451_state_machine 000000018007959c     c451_modello_2017b_levaRetro_acc.obj
 0004:000015a8       $pdata$1$c451_state_machine 00000001800795a8     c451_modello_2017b_levaRetro_acc.obj
 0004:000015b4       $pdata$c451_update_debugger_state_c451_modello_2017b_levaRetro_acc 00000001800795b4     c451_modello_2017b_levaRetro_acc.obj
 0004:000015c0       $pdata$chart_debug_initialization 00000001800795c0     c451_modello_2017b_levaRetro_acc.obj
 0004:000015cc       $pdata$5$chart_debug_initialization 00000001800795cc     c451_modello_2017b_levaRetro_acc.obj
 0004:000015d8       $pdata$6$chart_debug_initialization 00000001800795d8     c451_modello_2017b_levaRetro_acc.obj
 0004:000015e4       $pdata$chart_debug_initialize_data_addresses 00000001800795e4     c451_modello_2017b_levaRetro_acc.obj
 0004:000015f0       $pdata$0$chart_debug_initialize_data_addresses 00000001800795f0     c451_modello_2017b_levaRetro_acc.obj
 0004:000015fc       $pdata$1$chart_debug_initialize_data_addresses 00000001800795fc     c451_modello_2017b_levaRetro_acc.obj
 0004:00001608       $pdata$disable_c451_modello_2017b_levaRetro_acc 0000000180079608     c451_modello_2017b_levaRetro_acc.obj
 0004:00001614       $pdata$enable_c451_modello_2017b_levaRetro_acc 0000000180079614     c451_modello_2017b_levaRetro_acc.obj
 0004:00001620       $pdata$get_sim_state_c451_modello_2017b_levaRetro_acc 0000000180079620     c451_modello_2017b_levaRetro_acc.obj
 0004:0000162c       $pdata$init_simulink_io_address 000000018007962c     c451_modello_2017b_levaRetro_acc.obj
 0004:00001638       $pdata$initialize_c451_modello_2017b_levaRetro_acc 0000000180079638     c451_modello_2017b_levaRetro_acc.obj
 0004:00001644       $pdata$initialize_params_c451_modello_2017b_levaRetro_acc 0000000180079644     c451_modello_2017b_levaRetro_acc.obj
 0004:00001650       $pdata$mdlProcessParameters_c451_modello_2017b_levaRetro_acc 0000000180079650     c451_modello_2017b_levaRetro_acc.obj
 0004:0000165c       $pdata$0$mdlProcessParameters_c451_modello_2017b_levaRetro_acc 000000018007965c     c451_modello_2017b_levaRetro_acc.obj
 0004:00001668       $pdata$1$mdlProcessParameters_c451_modello_2017b_levaRetro_acc 0000000180079668     c451_modello_2017b_levaRetro_acc.obj
 0004:00001674       $pdata$2$mdlProcessParameters_c451_modello_2017b_levaRetro_acc 0000000180079674     c451_modello_2017b_levaRetro_acc.obj
 0004:00001680       $pdata$3$mdlProcessParameters_c451_modello_2017b_levaRetro_acc 0000000180079680     c451_modello_2017b_levaRetro_acc.obj
 0004:0000168c       $pdata$mdlRTW_c451_modello_2017b_levaRetro_acc 000000018007968c     c451_modello_2017b_levaRetro_acc.obj
 0004:00001698       $pdata$mdlSetWorkWidths_c451_modello_2017b_levaRetro_acc 0000000180079698     c451_modello_2017b_levaRetro_acc.obj
 0004:000016a4       $pdata$0$mdlSetWorkWidths_c451_modello_2017b_levaRetro_acc 00000001800796a4     c451_modello_2017b_levaRetro_acc.obj
 0004:000016b0       $pdata$3$mdlSetWorkWidths_c451_modello_2017b_levaRetro_acc 00000001800796b0     c451_modello_2017b_levaRetro_acc.obj
 0004:000016bc       $pdata$4$mdlSetWorkWidths_c451_modello_2017b_levaRetro_acc 00000001800796bc     c451_modello_2017b_levaRetro_acc.obj
 0004:000016c8       $pdata$5$mdlSetWorkWidths_c451_modello_2017b_levaRetro_acc 00000001800796c8     c451_modello_2017b_levaRetro_acc.obj
 0004:000016d4       $pdata$6$mdlSetWorkWidths_c451_modello_2017b_levaRetro_acc 00000001800796d4     c451_modello_2017b_levaRetro_acc.obj
 0004:000016e0       $pdata$mdlStart_c451_modello_2017b_levaRetro_acc 00000001800796e0     c451_modello_2017b_levaRetro_acc.obj
 0004:000016ec       $pdata$set_sim_state_c451_modello_2017b_levaRetro_acc 00000001800796ec     c451_modello_2017b_levaRetro_acc.obj
 0004:000016f8       $pdata$sf_c451_modello_2017b_levaRetro_acc_get_autoinheritance_info 00000001800796f8     c451_modello_2017b_levaRetro_acc.obj
 0004:00001704       $pdata$sf_c451_modello_2017b_levaRetro_acc_get_check_sum 0000000180079704     c451_modello_2017b_levaRetro_acc.obj
 0004:00001710       $pdata$sf_c451_modello_2017b_levaRetro_acc_get_eml_resolved_functions_info 0000000180079710     c451_modello_2017b_levaRetro_acc.obj
 0004:0000171c       $pdata$sf_c451_modello_2017b_levaRetro_acc_get_post_codegen_info 000000018007971c     c451_modello_2017b_levaRetro_acc.obj
 0004:00001728       $pdata$sf_c451_modello_2017b_levaRetro_acc_get_testpoint_info 0000000180079728     c451_modello_2017b_levaRetro_acc.obj
 0004:00001734       $pdata$sf_c451_modello_2017b_levaRetro_acc_jit_fallback_info 0000000180079734     c451_modello_2017b_levaRetro_acc.obj
 0004:00001740       $pdata$sf_check_dwork_consistency 0000000180079740     c451_modello_2017b_levaRetro_acc.obj
 0004:0000174c       $pdata$1$sf_check_dwork_consistency 000000018007974c     c451_modello_2017b_levaRetro_acc.obj
 0004:00001758       $pdata$2$sf_check_dwork_consistency 0000000180079758     c451_modello_2017b_levaRetro_acc.obj
 0004:00001764       $pdata$sf_gateway_c451_modello_2017b_levaRetro_acc 0000000180079764     c451_modello_2017b_levaRetro_acc.obj
 0004:00001770       $pdata$0$sf_gateway_c451_modello_2017b_levaRetro_acc 0000000180079770     c451_modello_2017b_levaRetro_acc.obj
 0004:0000177c       $pdata$1$sf_gateway_c451_modello_2017b_levaRetro_acc 000000018007977c     c451_modello_2017b_levaRetro_acc.obj
 0004:00001788       $pdata$sf_get_sim_state_info_c451_modello_2017b_levaRetro_acc 0000000180079788     c451_modello_2017b_levaRetro_acc.obj
 0004:00001794       $pdata$sf_opaque_disable_c451_modello_2017b_levaRetro_acc 0000000180079794     c451_modello_2017b_levaRetro_acc.obj
 0004:000017a0       $pdata$sf_opaque_enable_c451_modello_2017b_levaRetro_acc 00000001800797a0     c451_modello_2017b_levaRetro_acc.obj
 0004:000017ac       $pdata$sf_opaque_get_sim_state_c451_modello_2017b_levaRetro_acc 00000001800797ac     c451_modello_2017b_levaRetro_acc.obj
 0004:000017b8       $pdata$sf_opaque_initialize_c451_modello_2017b_levaRetro_acc 00000001800797b8     c451_modello_2017b_levaRetro_acc.obj
 0004:000017c4       $pdata$sf_opaque_set_sim_state_c451_modello_2017b_levaRetro_acc 00000001800797c4     c451_modello_2017b_levaRetro_acc.obj
 0004:000017d0       $pdata$sf_opaque_terminate_c451_modello_2017b_levaRetro_acc 00000001800797d0     c451_modello_2017b_levaRetro_acc.obj
 0004:000017dc       $pdata$0$sf_opaque_terminate_c451_modello_2017b_levaRetro_acc 00000001800797dc     c451_modello_2017b_levaRetro_acc.obj
 0004:000017e8       $pdata$1$sf_opaque_terminate_c451_modello_2017b_levaRetro_acc 00000001800797e8     c451_modello_2017b_levaRetro_acc.obj
 0004:000017f4       $pdata$sf_set_sfun_dwork_info 00000001800797f4     c451_modello_2017b_levaRetro_acc.obj
 0004:00001800       $pdata$c463_THRESHOLD_BL   0000000180079800     c463_modello_2017b_levaRetro_acc.obj
 0004:0000180c       $pdata$c463_THRESHOLD_BR   000000018007980c     c463_modello_2017b_levaRetro_acc.obj
 0004:00001818       $pdata$c463_TRANSITION_PT_BL_RR_PT_BL_RR2 0000000180079818     c463_modello_2017b_levaRetro_acc.obj
 0004:00001824       $pdata$c463_TRANSITION_PT_RL_BR2_PT_RL_BR 0000000180079824     c463_modello_2017b_levaRetro_acc.obj
 0004:00001830       $pdata$c463_b_emlrt_marshallIn 0000000180079830     c463_modello_2017b_levaRetro_acc.obj
 0004:0000183c       $pdata$c463_c_emlrt_marshallIn 000000018007983c     c463_modello_2017b_levaRetro_acc.obj
 0004:00001848       $pdata$c463_c_sf_marshallIn 0000000180079848     c463_modello_2017b_levaRetro_acc.obj
 0004:00001854       $pdata$c463_c_sf_marshallOut 0000000180079854     c463_modello_2017b_levaRetro_acc.obj
 0004:00001860       $pdata$c463_d_emlrt_marshallIn 0000000180079860     c463_modello_2017b_levaRetro_acc.obj
 0004:0000186c       $pdata$c463_d_sf_marshallIn 000000018007986c     c463_modello_2017b_levaRetro_acc.obj
 0004:00001878       $pdata$c463_d_sf_marshallOut 0000000180079878     c463_modello_2017b_levaRetro_acc.obj
 0004:00001884       $pdata$c463_e_emlrt_marshallIn 0000000180079884     c463_modello_2017b_levaRetro_acc.obj
 0004:00001890       $pdata$c463_exit_internal_state_machine 0000000180079890     c463_modello_2017b_levaRetro_acc.obj
 0004:0000189c       $pdata$c463_f_emlrt_marshallIn 000000018007989c     c463_modello_2017b_levaRetro_acc.obj
 0004:000018a8       $pdata$c463_g_emlrt_marshallIn 00000001800798a8     c463_modello_2017b_levaRetro_acc.obj
 0004:000018b4       $pdata$c463_h_emlrt_marshallIn 00000001800798b4     c463_modello_2017b_levaRetro_acc.obj
 0004:000018c0       $pdata$c463_i_emlrt_marshallIn 00000001800798c0     c463_modello_2017b_levaRetro_acc.obj
 0004:000018cc       $pdata$c463_state_machine  00000001800798cc     c463_modello_2017b_levaRetro_acc.obj
 0004:000018d8       $pdata$0$c463_state_machine 00000001800798d8     c463_modello_2017b_levaRetro_acc.obj
 0004:000018e4       $pdata$1$c463_state_machine 00000001800798e4     c463_modello_2017b_levaRetro_acc.obj
 0004:000018f0       $pdata$c463_update_debugger_state_c463_modello_2017b_levaRetro_acc 00000001800798f0     c463_modello_2017b_levaRetro_acc.obj
 0004:000018fc       $pdata$chart_debug_initialization 00000001800798fc     c463_modello_2017b_levaRetro_acc.obj
 0004:00001908       $pdata$5$chart_debug_initialization 0000000180079908     c463_modello_2017b_levaRetro_acc.obj
 0004:00001914       $pdata$6$chart_debug_initialization 0000000180079914     c463_modello_2017b_levaRetro_acc.obj
 0004:00001920       $pdata$chart_debug_initialize_data_addresses 0000000180079920     c463_modello_2017b_levaRetro_acc.obj
 0004:0000192c       $pdata$0$chart_debug_initialize_data_addresses 000000018007992c     c463_modello_2017b_levaRetro_acc.obj
 0004:00001938       $pdata$1$chart_debug_initialize_data_addresses 0000000180079938     c463_modello_2017b_levaRetro_acc.obj
 0004:00001944       $pdata$disable_c463_modello_2017b_levaRetro_acc 0000000180079944     c463_modello_2017b_levaRetro_acc.obj
 0004:00001950       $pdata$enable_c463_modello_2017b_levaRetro_acc 0000000180079950     c463_modello_2017b_levaRetro_acc.obj
 0004:0000195c       $pdata$get_sim_state_c463_modello_2017b_levaRetro_acc 000000018007995c     c463_modello_2017b_levaRetro_acc.obj
 0004:00001968       $pdata$init_simulink_io_address 0000000180079968     c463_modello_2017b_levaRetro_acc.obj
 0004:00001974       $pdata$initialize_c463_modello_2017b_levaRetro_acc 0000000180079974     c463_modello_2017b_levaRetro_acc.obj
 0004:00001980       $pdata$initialize_params_c463_modello_2017b_levaRetro_acc 0000000180079980     c463_modello_2017b_levaRetro_acc.obj
 0004:0000198c       $pdata$mdlProcessParameters_c463_modello_2017b_levaRetro_acc 000000018007998c     c463_modello_2017b_levaRetro_acc.obj
 0004:00001998       $pdata$0$mdlProcessParameters_c463_modello_2017b_levaRetro_acc 0000000180079998     c463_modello_2017b_levaRetro_acc.obj
 0004:000019a4       $pdata$1$mdlProcessParameters_c463_modello_2017b_levaRetro_acc 00000001800799a4     c463_modello_2017b_levaRetro_acc.obj
 0004:000019b0       $pdata$2$mdlProcessParameters_c463_modello_2017b_levaRetro_acc 00000001800799b0     c463_modello_2017b_levaRetro_acc.obj
 0004:000019bc       $pdata$3$mdlProcessParameters_c463_modello_2017b_levaRetro_acc 00000001800799bc     c463_modello_2017b_levaRetro_acc.obj
 0004:000019c8       $pdata$mdlRTW_c463_modello_2017b_levaRetro_acc 00000001800799c8     c463_modello_2017b_levaRetro_acc.obj
 0004:000019d4       $pdata$mdlSetWorkWidths_c463_modello_2017b_levaRetro_acc 00000001800799d4     c463_modello_2017b_levaRetro_acc.obj
 0004:000019e0       $pdata$0$mdlSetWorkWidths_c463_modello_2017b_levaRetro_acc 00000001800799e0     c463_modello_2017b_levaRetro_acc.obj
 0004:000019ec       $pdata$3$mdlSetWorkWidths_c463_modello_2017b_levaRetro_acc 00000001800799ec     c463_modello_2017b_levaRetro_acc.obj
 0004:000019f8       $pdata$4$mdlSetWorkWidths_c463_modello_2017b_levaRetro_acc 00000001800799f8     c463_modello_2017b_levaRetro_acc.obj
 0004:00001a04       $pdata$5$mdlSetWorkWidths_c463_modello_2017b_levaRetro_acc 0000000180079a04     c463_modello_2017b_levaRetro_acc.obj
 0004:00001a10       $pdata$6$mdlSetWorkWidths_c463_modello_2017b_levaRetro_acc 0000000180079a10     c463_modello_2017b_levaRetro_acc.obj
 0004:00001a1c       $pdata$mdlStart_c463_modello_2017b_levaRetro_acc 0000000180079a1c     c463_modello_2017b_levaRetro_acc.obj
 0004:00001a28       $pdata$set_sim_state_c463_modello_2017b_levaRetro_acc 0000000180079a28     c463_modello_2017b_levaRetro_acc.obj
 0004:00001a34       $pdata$sf_c463_modello_2017b_levaRetro_acc_get_autoinheritance_info 0000000180079a34     c463_modello_2017b_levaRetro_acc.obj
 0004:00001a40       $pdata$sf_c463_modello_2017b_levaRetro_acc_get_check_sum 0000000180079a40     c463_modello_2017b_levaRetro_acc.obj
 0004:00001a4c       $pdata$sf_c463_modello_2017b_levaRetro_acc_get_eml_resolved_functions_info 0000000180079a4c     c463_modello_2017b_levaRetro_acc.obj
 0004:00001a58       $pdata$sf_c463_modello_2017b_levaRetro_acc_get_post_codegen_info 0000000180079a58     c463_modello_2017b_levaRetro_acc.obj
 0004:00001a64       $pdata$sf_c463_modello_2017b_levaRetro_acc_get_testpoint_info 0000000180079a64     c463_modello_2017b_levaRetro_acc.obj
 0004:00001a70       $pdata$sf_c463_modello_2017b_levaRetro_acc_jit_fallback_info 0000000180079a70     c463_modello_2017b_levaRetro_acc.obj
 0004:00001a7c       $pdata$sf_check_dwork_consistency 0000000180079a7c     c463_modello_2017b_levaRetro_acc.obj
 0004:00001a88       $pdata$1$sf_check_dwork_consistency 0000000180079a88     c463_modello_2017b_levaRetro_acc.obj
 0004:00001a94       $pdata$2$sf_check_dwork_consistency 0000000180079a94     c463_modello_2017b_levaRetro_acc.obj
 0004:00001aa0       $pdata$sf_gateway_c463_modello_2017b_levaRetro_acc 0000000180079aa0     c463_modello_2017b_levaRetro_acc.obj
 0004:00001aac       $pdata$0$sf_gateway_c463_modello_2017b_levaRetro_acc 0000000180079aac     c463_modello_2017b_levaRetro_acc.obj
 0004:00001ab8       $pdata$1$sf_gateway_c463_modello_2017b_levaRetro_acc 0000000180079ab8     c463_modello_2017b_levaRetro_acc.obj
 0004:00001ac4       $pdata$sf_get_sim_state_info_c463_modello_2017b_levaRetro_acc 0000000180079ac4     c463_modello_2017b_levaRetro_acc.obj
 0004:00001ad0       $pdata$sf_opaque_disable_c463_modello_2017b_levaRetro_acc 0000000180079ad0     c463_modello_2017b_levaRetro_acc.obj
 0004:00001adc       $pdata$sf_opaque_enable_c463_modello_2017b_levaRetro_acc 0000000180079adc     c463_modello_2017b_levaRetro_acc.obj
 0004:00001ae8       $pdata$sf_opaque_get_sim_state_c463_modello_2017b_levaRetro_acc 0000000180079ae8     c463_modello_2017b_levaRetro_acc.obj
 0004:00001af4       $pdata$sf_opaque_initialize_c463_modello_2017b_levaRetro_acc 0000000180079af4     c463_modello_2017b_levaRetro_acc.obj
 0004:00001b00       $pdata$sf_opaque_set_sim_state_c463_modello_2017b_levaRetro_acc 0000000180079b00     c463_modello_2017b_levaRetro_acc.obj
 0004:00001b0c       $pdata$sf_opaque_terminate_c463_modello_2017b_levaRetro_acc 0000000180079b0c     c463_modello_2017b_levaRetro_acc.obj
 0004:00001b18       $pdata$0$sf_opaque_terminate_c463_modello_2017b_levaRetro_acc 0000000180079b18     c463_modello_2017b_levaRetro_acc.obj
 0004:00001b24       $pdata$1$sf_opaque_terminate_c463_modello_2017b_levaRetro_acc 0000000180079b24     c463_modello_2017b_levaRetro_acc.obj
 0004:00001b30       $pdata$sf_set_sfun_dwork_info 0000000180079b30     c463_modello_2017b_levaRetro_acc.obj
 0004:00001b3c       $pdata$ProcessMexSfunctionCmdLineCall 0000000180079b3c     modello_2017b_levaRetro_acc_sfun_registry.obj
 0004:00001b48       $pdata$ProcessMexSfunctionEveryCall 0000000180079b48     modello_2017b_levaRetro_acc_sfun_registry.obj
 0004:00001b54       $pdata$ReportIndexOutOfBoundsError 0000000180079b54     modello_2017b_levaRetro_acc_sfun_registry.obj
 0004:00001b60       $pdata$0$ReportIndexOutOfBoundsError 0000000180079b60     modello_2017b_levaRetro_acc_sfun_registry.obj
 0004:00001b6c       $pdata$1$ReportIndexOutOfBoundsError 0000000180079b6c     modello_2017b_levaRetro_acc_sfun_registry.obj
 0004:00001b78       $pdata$_CreateSimStruct    0000000180079b78     modello_2017b_levaRetro_acc_sfun_registry.obj
 0004:00001b84       $pdata$_ProcessMexSfunctionCmdLineCall 0000000180079b84     modello_2017b_levaRetro_acc_sfun_registry.obj
 0004:00001b90       $pdata$_RegNumInputPortsCB 0000000180079b90     modello_2017b_levaRetro_acc_sfun_registry.obj
 0004:00001b9c       $pdata$_RegNumOutputPortsCB 0000000180079b9c     modello_2017b_levaRetro_acc_sfun_registry.obj
 0004:00001ba8       $pdata$_ssGetAbsTol        0000000180079ba8     modello_2017b_levaRetro_acc_sfun_registry.obj
 0004:00001bb4       $pdata$_ssGetCallSystemNumFcnCallDestinations 0000000180079bb4     modello_2017b_levaRetro_acc_sfun_registry.obj
 0004:00001bc0       $pdata$_ssGetCompInputPortSymbolicDimsId 0000000180079bc0     modello_2017b_levaRetro_acc_sfun_registry.obj
 0004:00001bcc       $pdata$_ssGetCompOutputPortSymbolicDimsId 0000000180079bcc     modello_2017b_levaRetro_acc_sfun_registry.obj
 0004:00001bd8       $pdata$_ssGetIWorkValueFcn 0000000180079bd8     modello_2017b_levaRetro_acc_sfun_registry.obj
 0004:00001be4       $pdata$0$_ssGetIWorkValueFcn 0000000180079be4     modello_2017b_levaRetro_acc_sfun_registry.obj
 0004:00001bf0       $pdata$1$_ssGetIWorkValueFcn 0000000180079bf0     modello_2017b_levaRetro_acc_sfun_registry.obj
 0004:00001bfc       $pdata$_ssGetInputPortSignalFcn 0000000180079bfc     modello_2017b_levaRetro_acc_sfun_registry.obj
 0004:00001c08       $pdata$_ssGetInputPortSignalPtrsFcn 0000000180079c08     modello_2017b_levaRetro_acc_sfun_registry.obj
 0004:00001c14       $pdata$_ssGetNumSymbolicDims 0000000180079c14     modello_2017b_levaRetro_acc_sfun_registry.obj
 0004:00001c20       $pdata$_ssGetPWorkValueFcn 0000000180079c20     modello_2017b_levaRetro_acc_sfun_registry.obj
 0004:00001c2c       $pdata$0$_ssGetPWorkValueFcn 0000000180079c2c     modello_2017b_levaRetro_acc_sfun_registry.obj
 0004:00001c38       $pdata$1$_ssGetPWorkValueFcn 0000000180079c38     modello_2017b_levaRetro_acc_sfun_registry.obj
 0004:00001c44       $pdata$_ssGetRWorkValueFcn 0000000180079c44     modello_2017b_levaRetro_acc_sfun_registry.obj
 0004:00001c50       $pdata$0$_ssGetRWorkValueFcn 0000000180079c50     modello_2017b_levaRetro_acc_sfun_registry.obj
 0004:00001c5c       $pdata$1$_ssGetRWorkValueFcn 0000000180079c5c     modello_2017b_levaRetro_acc_sfun_registry.obj
 0004:00001c68       $pdata$_ssGetSymbolicDim   0000000180079c68     modello_2017b_levaRetro_acc_sfun_registry.obj
 0004:00001c74       $pdata$_ssRegisterSymbolicDims 0000000180079c74     modello_2017b_levaRetro_acc_sfun_registry.obj
 0004:00001c80       $pdata$_ssRegisterSymbolicDimsDivide 0000000180079c80     modello_2017b_levaRetro_acc_sfun_registry.obj
 0004:00001c8c       $pdata$_ssRegisterSymbolicDimsExpr 0000000180079c8c     modello_2017b_levaRetro_acc_sfun_registry.obj
 0004:00001c98       $pdata$_ssRegisterSymbolicDimsIntValue 0000000180079c98     modello_2017b_levaRetro_acc_sfun_registry.obj
 0004:00001ca4       $pdata$_ssRegisterSymbolicDimsMinus 0000000180079ca4     modello_2017b_levaRetro_acc_sfun_registry.obj
 0004:00001cb0       $pdata$_ssRegisterSymbolicDimsMultiply 0000000180079cb0     modello_2017b_levaRetro_acc_sfun_registry.obj
 0004:00001cbc       $pdata$_ssRegisterSymbolicDimsPlus 0000000180079cbc     modello_2017b_levaRetro_acc_sfun_registry.obj
 0004:00001cc8       $pdata$_ssRegisterSymbolicDimsString 0000000180079cc8     modello_2017b_levaRetro_acc_sfun_registry.obj
 0004:00001cd4       $pdata$_ssSetCompDWorkSymbolicDimsId 0000000180079cd4     modello_2017b_levaRetro_acc_sfun_registry.obj
 0004:00001ce0       $pdata$_ssSetCompInputPortSymbolicDimsId 0000000180079ce0     modello_2017b_levaRetro_acc_sfun_registry.obj
 0004:00001cec       $pdata$_ssSetCompOutputPortSymbolicDimsId 0000000180079cec     modello_2017b_levaRetro_acc_sfun_registry.obj
 0004:00001cf8       $pdata$_ssSetIWorkValueFcn 0000000180079cf8     modello_2017b_levaRetro_acc_sfun_registry.obj
 0004:00001d04       $pdata$0$_ssSetIWorkValueFcn 0000000180079d04     modello_2017b_levaRetro_acc_sfun_registry.obj
 0004:00001d10       $pdata$1$_ssSetIWorkValueFcn 0000000180079d10     modello_2017b_levaRetro_acc_sfun_registry.obj
 0004:00001d1c       $pdata$_ssSetInputPortDirectFeedThroughFcn 0000000180079d1c     modello_2017b_levaRetro_acc_sfun_registry.obj
 0004:00001d28       $pdata$_ssSetInputPortMatrixDimensions 0000000180079d28     modello_2017b_levaRetro_acc_sfun_registry.obj
 0004:00001d34       $pdata$_ssSetInputPortReusableFcn 0000000180079d34     modello_2017b_levaRetro_acc_sfun_registry.obj
 0004:00001d40       $pdata$_ssSetInputPortSymbolicDimsId 0000000180079d40     modello_2017b_levaRetro_acc_sfun_registry.obj
 0004:00001d4c       $pdata$_ssSetInputPortVectorDimension 0000000180079d4c     modello_2017b_levaRetro_acc_sfun_registry.obj
 0004:00001d58       $pdata$_ssSetOutputPortMatrixDimensions 0000000180079d58     modello_2017b_levaRetro_acc_sfun_registry.obj
 0004:00001d64       $pdata$_ssSetOutputPortReusableFcn 0000000180079d64     modello_2017b_levaRetro_acc_sfun_registry.obj
 0004:00001d70       $pdata$_ssSetOutputPortSymbolicDimsId 0000000180079d70     modello_2017b_levaRetro_acc_sfun_registry.obj
 0004:00001d7c       $pdata$_ssSetOutputPortVectorDimension 0000000180079d7c     modello_2017b_levaRetro_acc_sfun_registry.obj
 0004:00001d88       $pdata$_ssSetPWorkValueFcn 0000000180079d88     modello_2017b_levaRetro_acc_sfun_registry.obj
 0004:00001d94       $pdata$0$_ssSetPWorkValueFcn 0000000180079d94     modello_2017b_levaRetro_acc_sfun_registry.obj
 0004:00001da0       $pdata$1$_ssSetPWorkValueFcn 0000000180079da0     modello_2017b_levaRetro_acc_sfun_registry.obj
 0004:00001dac       $pdata$_ssSetRWorkValueFcn 0000000180079dac     modello_2017b_levaRetro_acc_sfun_registry.obj
 0004:00001db8       $pdata$0$_ssSetRWorkValueFcn 0000000180079db8     modello_2017b_levaRetro_acc_sfun_registry.obj
 0004:00001dc4       $pdata$1$_ssSetRWorkValueFcn 0000000180079dc4     modello_2017b_levaRetro_acc_sfun_registry.obj
 0004:00001dd0       $pdata$_vsnprintf_l        0000000180079dd0     modello_2017b_levaRetro_acc_sfun_registry.obj
 0004:00001ddc       $pdata$_vsprintf_l         0000000180079ddc     modello_2017b_levaRetro_acc_sfun_registry.obj
 0004:00001de8       $pdata$mdlGetSimState      0000000180079de8     modello_2017b_levaRetro_acc_sfun_registry.obj
 0004:00001df4       $pdata$mdlRTW              0000000180079df4     modello_2017b_levaRetro_acc_sfun_registry.obj
 0004:00001e00       $pdata$mdlSetSimState      0000000180079e00     modello_2017b_levaRetro_acc_sfun_registry.obj
 0004:00001e0c       $pdata$mdl_derivatives_processing 0000000180079e0c     modello_2017b_levaRetro_acc_sfun_registry.obj
 0004:00001e18       $pdata$mdl_disable_processing 0000000180079e18     modello_2017b_levaRetro_acc_sfun_registry.obj
 0004:00001e24       $pdata$mdl_enable_processing 0000000180079e24     modello_2017b_levaRetro_acc_sfun_registry.obj
 0004:00001e30       $pdata$mdl_ext_mode_exec_processing 0000000180079e30     modello_2017b_levaRetro_acc_sfun_registry.obj
 0004:00001e3c       $pdata$mdl_initialize_conditions_processing 0000000180079e3c     modello_2017b_levaRetro_acc_sfun_registry.obj
 0004:00001e48       $pdata$mdl_outputs_continuous_legacy 0000000180079e48     modello_2017b_levaRetro_acc_sfun_registry.obj
 0004:00001e54       $pdata$mdl_outputs_processing 0000000180079e54     modello_2017b_levaRetro_acc_sfun_registry.obj
 0004:00001e60       $pdata$mdl_start_processing 0000000180079e60     modello_2017b_levaRetro_acc_sfun_registry.obj
 0004:00001e6c       $pdata$mdl_terminate_processing 0000000180079e6c     modello_2017b_levaRetro_acc_sfun_registry.obj
 0004:00001e78       $pdata$mdl_update_processing 0000000180079e78     modello_2017b_levaRetro_acc_sfun_registry.obj
 0004:00001e84       $pdata$mdl_zeroCrossings_processing 0000000180079e84     modello_2017b_levaRetro_acc_sfun_registry.obj
 0004:00001e90       $pdata$mexFunction         0000000180079e90     modello_2017b_levaRetro_acc_sfun_registry.obj
 0004:00001e9c       $pdata$sf_debug_api_wrapper 0000000180079e9c     modello_2017b_levaRetro_acc_sfun_registry.obj
 0004:00001ea8       $pdata$sf_machine_global_initializer 0000000180079ea8     modello_2017b_levaRetro_acc_sfun_registry.obj
 0004:00001eb4       $pdata$sf_machine_global_method_dispatcher 0000000180079eb4     modello_2017b_levaRetro_acc_sfun_registry.obj
 0004:00001ec0       $pdata$sf_machine_global_terminator 0000000180079ec0     modello_2017b_levaRetro_acc_sfun_registry.obj
 0004:00001ecc       $pdata$sf_mex_unlock_call  0000000180079ecc     modello_2017b_levaRetro_acc_sfun_registry.obj
 0004:00001ed8       $pdata$sf_process_autoinheritance_call 0000000180079ed8     modello_2017b_levaRetro_acc_sfun_registry.obj
 0004:00001ee4       $pdata$sf_process_check_sum_call 0000000180079ee4     modello_2017b_levaRetro_acc_sfun_registry.obj
 0004:00001ef0       $pdata$sf_process_get_eml_resolved_functions_info_call 0000000180079ef0     modello_2017b_levaRetro_acc_sfun_registry.obj
 0004:00001efc       $pdata$sf_process_get_jit_fallback_info_call 0000000180079efc     modello_2017b_levaRetro_acc_sfun_registry.obj
 0004:00001f08       $pdata$sf_process_get_third_party_uses_info_call 0000000180079f08     modello_2017b_levaRetro_acc_sfun_registry.obj
 0004:00001f14       $pdata$sf_process_get_updateBuildInfo_args_info_call 0000000180079f14     modello_2017b_levaRetro_acc_sfun_registry.obj
 0004:00001f20       $pdata$sf_process_testpoint_info_call 0000000180079f20     modello_2017b_levaRetro_acc_sfun_registry.obj
 0004:00001f2c       $pdata$sprintf             0000000180079f2c     modello_2017b_levaRetro_acc_sfun_registry.obj
 0004:00001f38       $pdata$ssCloneAndAddZcSignalInfo 0000000180079f38     modello_2017b_levaRetro_acc_sfun_registry.obj
 0004:00001f44       $pdata$ssCreateAndAddZcSignalInfo 0000000180079f44     modello_2017b_levaRetro_acc_sfun_registry.obj
 0004:00001f50       $pdata$ssGetDTypeIdFromMxArray 0000000180079f50     modello_2017b_levaRetro_acc_sfun_registry.obj
 0004:00001f5c       $pdata$ssGetIsInputPortElementContinuous 0000000180079f5c     modello_2017b_levaRetro_acc_sfun_registry.obj
 0004:00001f68       $pdata$ssGetIsZeroCrossControlDisabled 0000000180079f68     modello_2017b_levaRetro_acc_sfun_registry.obj
 0004:00001f74       $pdata$ssGetNumZcSignals   0000000180079f74     modello_2017b_levaRetro_acc_sfun_registry.obj
 0004:00001f80       $pdata$ssGetParameterTuningCompliance 0000000180079f80     modello_2017b_levaRetro_acc_sfun_registry.obj
 0004:00001f8c       $pdata$ssGetSFuncBlockHandle 0000000180079f8c     modello_2017b_levaRetro_acc_sfun_registry.obj
 0004:00001f98       $pdata$ssGetZcSignalIsZcElementDisc 0000000180079f98     modello_2017b_levaRetro_acc_sfun_registry.obj
 0004:00001fa4       $pdata$ssGetZcSignalName   0000000180079fa4     modello_2017b_levaRetro_acc_sfun_registry.obj
 0004:00001fb0       $pdata$ssGetZcSignalNeedsEventNotification 0000000180079fb0     modello_2017b_levaRetro_acc_sfun_registry.obj
 0004:00001fbc       $pdata$ssGetZcSignalType   0000000180079fbc     modello_2017b_levaRetro_acc_sfun_registry.obj
 0004:00001fc8       $pdata$ssGetZcSignalVector 0000000180079fc8     modello_2017b_levaRetro_acc_sfun_registry.obj
 0004:00001fd4       $pdata$ssGetZcSignalWidth  0000000180079fd4     modello_2017b_levaRetro_acc_sfun_registry.obj
 0004:00001fe0       $pdata$ssGetZcSignalZcEventType 0000000180079fe0     modello_2017b_levaRetro_acc_sfun_registry.obj
 0004:00001fec       $pdata$ssGetZcSignalZcEvents 0000000180079fec     modello_2017b_levaRetro_acc_sfun_registry.obj
 0004:00001ff8       $pdata$ssGetZcSignalZcTol  0000000180079ff8     modello_2017b_levaRetro_acc_sfun_registry.obj
 0004:00002004       $pdata$ssIsRunTimeParamTunable 000000018007a004     modello_2017b_levaRetro_acc_sfun_registry.obj
 0004:00002010       $pdata$ssSetIsInputPortUsedForContZcSignal 000000018007a010     modello_2017b_levaRetro_acc_sfun_registry.obj
 0004:0000201c       $pdata$ssSetZcSignalIsZcElementDisc 000000018007a01c     modello_2017b_levaRetro_acc_sfun_registry.obj
 0004:00002028       $pdata$ssSetZcSignalNeedsEventNotification 000000018007a028     modello_2017b_levaRetro_acc_sfun_registry.obj
 0004:00002034       $pdata$ssSetZcSignalType   000000018007a034     modello_2017b_levaRetro_acc_sfun_registry.obj
 0004:00002040       $pdata$ssSetZcSignalWidth  000000018007a040     modello_2017b_levaRetro_acc_sfun_registry.obj
 0004:0000204c       $pdata$ssSetZcSignalZcEventType 000000018007a04c     modello_2017b_levaRetro_acc_sfun_registry.obj
 0004:00002058       $pdata$ssSetZcSignalZcTol  000000018007a058     modello_2017b_levaRetro_acc_sfun_registry.obj
 0004:00002064       $pdata$ssWarning           000000018007a064     modello_2017b_levaRetro_acc_sfun_registry.obj
 0004:00002070       $pdata$ssWriteRTWMx2dMatParam 000000018007a070     modello_2017b_levaRetro_acc_sfun_registry.obj
 0004:0000207c       $pdata$ssWriteRTWMxVectParam 000000018007a07c     modello_2017b_levaRetro_acc_sfun_registry.obj
 0004:00002088       $pdata$ssWriteRTWNameValuePair 000000018007a088     modello_2017b_levaRetro_acc_sfun_registry.obj
 0004:00002094       $pdata$0$ssWriteRTWNameValuePair 000000018007a094     modello_2017b_levaRetro_acc_sfun_registry.obj
 0004:000020a0       $pdata$1$ssWriteRTWNameValuePair 000000018007a0a0     modello_2017b_levaRetro_acc_sfun_registry.obj
 0004:000020ac       $pdata$ssWriteRTWParamSettings 000000018007a0ac     modello_2017b_levaRetro_acc_sfun_registry.obj
 0004:000020b8       $pdata$1$ssWriteRTWParamSettings 000000018007a0b8     modello_2017b_levaRetro_acc_sfun_registry.obj
 0004:000020c4       $pdata$2$ssWriteRTWParamSettings 000000018007a0c4     modello_2017b_levaRetro_acc_sfun_registry.obj
 0004:000020d0       $pdata$3$ssWriteRTWParamSettings 000000018007a0d0     modello_2017b_levaRetro_acc_sfun_registry.obj
 0004:000020dc       $pdata$ssWriteRTWParameters 000000018007a0dc     modello_2017b_levaRetro_acc_sfun_registry.obj
 0004:000020e8       $pdata$1$ssWriteRTWParameters 000000018007a0e8     modello_2017b_levaRetro_acc_sfun_registry.obj
 0004:000020f4       $pdata$2$ssWriteRTWParameters 000000018007a0f4     modello_2017b_levaRetro_acc_sfun_registry.obj
 0004:00002100       $pdata$3$ssWriteRTWParameters 000000018007a100     modello_2017b_levaRetro_acc_sfun_registry.obj
 0004:0000210c       $pdata$4$ssWriteRTWParameters 000000018007a10c     modello_2017b_levaRetro_acc_sfun_registry.obj
 0004:00002118       $pdata$ssWriteRTWWorkVect  000000018007a118     modello_2017b_levaRetro_acc_sfun_registry.obj
 0004:00002124       $pdata$3$ssWriteRTWWorkVect 000000018007a124     modello_2017b_levaRetro_acc_sfun_registry.obj
 0004:00002130       $pdata$4$ssWriteRTWWorkVect 000000018007a130     modello_2017b_levaRetro_acc_sfun_registry.obj
 0004:0000213c       $pdata$__GSHandlerCheck    000000018007a13c     MSVCRT:_gshandler_.obj
 0004:00002148       $pdata$__GSHandlerCheckCommon 000000018007a148     MSVCRT:_gshandler_.obj
 0004:00002160       $pdata$?dllmain_crt_dispatch@@YAHQEAUHINSTANCE__@@KQEAX@Z 000000018007a160     MSVCRT:dll_dllmain.obj
 0004:0000216c       $pdata$?dllmain_crt_process_attach@@YAHQEAUHINSTANCE__@@QEAX@Z 000000018007a16c     MSVCRT:dll_dllmain.obj
 0004:00002178       $pdata$?dllmain_crt_process_detach@@YAH_N@Z 000000018007a178     MSVCRT:dll_dllmain.obj
 0004:00002184       $pdata$?dllmain_dispatch@@YAHQEAUHINSTANCE__@@KQEAX@Z 000000018007a184     MSVCRT:dll_dllmain.obj
 0004:00002190       $pdata$?dllmain_raw@@YAHQEAUHINSTANCE__@@KQEAX@Z 000000018007a190     MSVCRT:dll_dllmain.obj
 0004:0000219c       $pdata$_DllMainCRTStartup  000000018007a19c     MSVCRT:dll_dllmain.obj
 0004:000021a8       $pdata$__raise_securityfailure 000000018007a1a8     MSVCRT:gs_report.obj
 0004:000021b4       $pdata$__report_gsfailure  000000018007a1b4     MSVCRT:gs_report.obj
 0004:000021c0       $pdata$__report_rangecheckfailure 000000018007a1c0     MSVCRT:gs_report.obj
 0004:000021cc       $pdata$__report_securityfailure 000000018007a1cc     MSVCRT:gs_report.obj
 0004:000021d8       $pdata$__report_securityfailureEx 000000018007a1d8     MSVCRT:gs_report.obj
 0004:000021e4       $pdata$capture_current_context 000000018007a1e4     MSVCRT:gs_report.obj
 0004:000021f0       $pdata$capture_previous_context 000000018007a1f0     MSVCRT:gs_report.obj
 0004:000021fc       $pdata$?configure_argv@__scrt_narrow_argv_policy@@SAHXZ 000000018007a1fc     MSVCRT:utility.obj
 0004:00002208       $pdata$__scrt_acquire_startup_lock 000000018007a208     MSVCRT:utility.obj
 0004:00002214       $pdata$__scrt_dllmain_after_initialize_c 000000018007a214     MSVCRT:utility.obj
 0004:00002220       $pdata$__scrt_dllmain_before_initialize_c 000000018007a220     MSVCRT:utility.obj
 0004:0000222c       $pdata$__scrt_dllmain_crt_thread_attach 000000018007a22c     MSVCRT:utility.obj
 0004:00002238       $pdata$__scrt_dllmain_crt_thread_detach 000000018007a238     MSVCRT:utility.obj
 0004:00002244       $pdata$__scrt_dllmain_exception_filter 000000018007a244     MSVCRT:utility.obj
 0004:00002250       $pdata$__scrt_dllmain_uninitialize_c 000000018007a250     MSVCRT:utility.obj
 0004:0000225c       $pdata$__scrt_dllmain_uninitialize_critical 000000018007a25c     MSVCRT:utility.obj
 0004:00002268       $pdata$__scrt_initialize_crt 000000018007a268     MSVCRT:utility.obj
 0004:00002274       $pdata$__scrt_initialize_onexit_tables 000000018007a274     MSVCRT:utility.obj
 0004:00002280       $pdata$__scrt_is_nonwritable_in_current_image 000000018007a280     MSVCRT:utility.obj
 0004:0000228c       $pdata$__scrt_release_startup_lock 000000018007a28c     MSVCRT:utility.obj
 0004:00002298       $pdata$__scrt_uninitialize_crt 000000018007a298     MSVCRT:utility.obj
 0004:000022a4       $pdata$_onexit             000000018007a2a4     MSVCRT:utility.obj
 0004:000022b0       $pdata$atexit              000000018007a2b0     MSVCRT:utility.obj
 0004:000022bc       $pdata$__security_init_cookie 000000018007a2bc     MSVCRT:gs_support.obj
 0004:000022c8       $pdata$DllMain             000000018007a2c8     MSVCRT:dll_dllmain_stub.obj
 0004:000022d4       $pdata$__scrt_initialize_default_local_stdio_options 000000018007a2d4     MSVCRT:default_local_stdio_options.obj
 0004:000022e0       $pdata$__scrt_fastfail     000000018007a2e0     MSVCRT:utility_desktop.obj
 0004:000022ec       $pdata$__scrt_get_show_window_mode 000000018007a2ec     MSVCRT:utility_desktop.obj
 0004:000022f8       $pdata$__scrt_is_managed_app 000000018007a2f8     MSVCRT:utility_desktop.obj
 0004:00002304       $pdata$__scrt_unhandled_exception_filter 000000018007a304     MSVCRT:utility_desktop.obj
 0004:00002310       $pdata$_RTC_Initialize     000000018007a310     MSVCRT:_initsect_.obj
 0004:0000231c       $pdata$_RTC_Terminate      000000018007a31c     MSVCRT:_initsect_.obj
 0004:00002328       $pdata$__isa_available_init 000000018007a328     MSVCRT:_cpu_disp_.obj
 0004:00002340       $pdata$?fin$0@?0??dllmain_crt_process_attach@@YAHQEAUHINSTANCE__@@QEAX@Z@4HA 000000018007a340     MSVCRT:dll_dllmain.obj
 0004:0000234c       $pdata$?fin$0@?0??dllmain_crt_process_detach@@YAH_N@Z@4HA 000000018007a34c     MSVCRT:dll_dllmain.obj
 0004:00002358       $pdata$?filt$0@?0??dllmain_dispatch@@YAHQEAUHINSTANCE__@@KQEAX@Z@4HA 000000018007a358     MSVCRT:dll_dllmain.obj
 0004:00002364       $pdata$__scrt_is_nonwritable_in_current_image$filt$0 000000018007a364     MSVCRT:utility.obj
 0005:00000000       __guard_fids_?dllmain_crt_process_attach@@YAHQEAUHINSTANCE__@@QEAX@Z 000000018007b000     MSVCRT:dll_dllmain.obj
 0005:00000008       __guard_fids_?dllmain_dispatch@@YAHQEAUHINSTANCE__@@KQEAX@Z 000000018007b008     MSVCRT:dll_dllmain.obj
 0005:0000000c       __guard_fids___scrt_set_unhandled_exception_filter 000000018007b00c     MSVCRT:utility_desktop.obj
 0005:00000010       __guard_fids__             000000018007b010     MSVCRT:guard_support.obj
 0005:00000014       __guard_fids__guard_icall_checks_enforced 000000018007b014     MSVCRT:guard_support.obj
